

Microchip MPLAB XC8 Assembler V2.32 build 20210201212658 
                                                                                               Mon Aug 30 21:37:20 2021

Microchip MPLAB XC8 C Compiler v2.32 (Free license) build 20210201212658 Og1 
     1                           	processor	16F887
     2                           	pagewidth 120
     3                           	opt	flic
     4                           	psect	cinit,global,class=CODE,merge=1,delta=2
     5                           	psect	bssCOMMON,global,class=COMMON,space=1,delta=1,noexec
     6                           	psect	bssBANK0,global,class=BANK0,space=1,delta=1,noexec
     7                           	psect	cstackCOMMON,global,class=COMMON,space=1,delta=1,noexec
     8                           	psect	cstackBANK0,global,class=BANK0,space=1,delta=1,noexec
     9                           	psect	maintext,global,class=CODE,split=1,delta=2
    10                           	psect	text1,local,class=CODE,merge=1,delta=2
    11                           	psect	text2,local,class=CODE,merge=1,delta=2
    12                           	psect	text3,local,class=CODE,merge=1,delta=2
    13                           	psect	text4,local,class=CODE,merge=1,delta=2
    14                           	psect	text5,local,class=CODE,merge=1,delta=2,group=1
    15                           	psect	text6,local,class=CODE,merge=1,delta=2
    16                           	psect	text7,local,class=CODE,merge=1,delta=2
    17                           	psect	text8,local,class=CODE,merge=1,delta=2
    18                           	psect	text9,local,class=CODE,merge=1,delta=2
    19                           	psect	intentry,global,class=CODE,delta=2
    20                           	psect	config,global,abs,ovrld,class=CONFIG,space=4,delta=2,noexec
    21                           	dabs	1,0x7E,2
    22  0000                     
    23                           ; Version 2.20
    24                           ; Generated 12/02/2020 GMT
    25                           ; 
    26                           ; Copyright © 2020, Microchip Technology Inc. and its subsidiaries ("Microchip")
    27                           ; All rights reserved.
    28                           ; 
    29                           ; This software is developed by Microchip Technology Inc. and its subsidiaries ("Microch
      +                          ip").
    30                           ; 
    31                           ; Redistribution and use in source and binary forms, with or without modification, are
    32                           ; permitted provided that the following conditions are met:
    33                           ; 
    34                           ;     1. Redistributions of source code must retain the above copyright notice, this lis
      +                          t of
    35                           ;        conditions and the following disclaimer.
    36                           ; 
    37                           ;     2. Redistributions in binary form must reproduce the above copyright notice, this 
      +                          list
    38                           ;        of conditions and the following disclaimer in the documentation and/or other
    39                           ;        materials provided with the distribution.
    40                           ; 
    41                           ;     3. Microchip's name may not be used to endorse or promote products derived from th
      +                          is
    42                           ;        software without specific prior written permission.
    43                           ; 
    44                           ; THIS SOFTWARE IS PROVIDED BY MICROCHIP "AS IS" AND ANY EXPRESS OR IMPLIED WARRANTIES,
    45                           ; INCLUDING, BUT NOT LIMITED TO, THE IMPLIED WARRANTIES OF MERCHANTABILITY AND FITNESS F
      +                          OR
    46                           ; PURPOSE ARE DISCLAIMED.  IN NO EVENT SHALL MICROCHIP BE LIABLE FOR ANY DIRECT, INDIREC
      +                          T,
    47                           ; INCIDENTAL, SPECIAL, EXEMPLARY, OR CONSEQUENTIAL DAMAGES (INCLUDING BUT NOT LIMITED TO
    48                           ; PROCUREMENT OF SUBSTITUTE GOODS OR SERVICES; LOSS OF USE, DATA OR PROFITS; OR BUSINESS
    49                           ; INTERRUPTION) HOWSOEVER CAUSED AND ON ANY THEORY OF LIABILITY, WHETHER IN CONTRACT, ST
      +                          RICT
    50                           ; LIABILITY, OR TORT (INCLUDING NEGLIGENCE OR OTHERWISE) ARISING IN ANY WAY OUT OF THE U
      +                          SE OF
    51                           ; THIS SOFTWARE, EVEN IF ADVISED OF THE POSSIBILITY OF SUCH DAMAGE.
    52                           ; 
    53                           ; 
    54                           ; Code-generator required, PIC16F887 Definitions
    55                           ; 
    56                           ; SFR Addresses
    57  0000                     	;# 
    58  0001                     	;# 
    59  0002                     	;# 
    60  0003                     	;# 
    61  0004                     	;# 
    62  0005                     	;# 
    63  0006                     	;# 
    64  0007                     	;# 
    65  0008                     	;# 
    66  0009                     	;# 
    67  000A                     	;# 
    68  000B                     	;# 
    69  000C                     	;# 
    70  000D                     	;# 
    71  000E                     	;# 
    72  000E                     	;# 
    73  000F                     	;# 
    74  0010                     	;# 
    75  0011                     	;# 
    76  0012                     	;# 
    77  0013                     	;# 
    78  0014                     	;# 
    79  0015                     	;# 
    80  0015                     	;# 
    81  0016                     	;# 
    82  0017                     	;# 
    83  0018                     	;# 
    84  0019                     	;# 
    85  001A                     	;# 
    86  001B                     	;# 
    87  001B                     	;# 
    88  001C                     	;# 
    89  001D                     	;# 
    90  001E                     	;# 
    91  001F                     	;# 
    92  0081                     	;# 
    93  0085                     	;# 
    94  0086                     	;# 
    95  0087                     	;# 
    96  0088                     	;# 
    97  0089                     	;# 
    98  008C                     	;# 
    99  008D                     	;# 
   100  008E                     	;# 
   101  008F                     	;# 
   102  0090                     	;# 
   103  0091                     	;# 
   104  0092                     	;# 
   105  0093                     	;# 
   106  0093                     	;# 
   107  0093                     	;# 
   108  0094                     	;# 
   109  0095                     	;# 
   110  0096                     	;# 
   111  0097                     	;# 
   112  0098                     	;# 
   113  0099                     	;# 
   114  009A                     	;# 
   115  009B                     	;# 
   116  009C                     	;# 
   117  009D                     	;# 
   118  009E                     	;# 
   119  009F                     	;# 
   120  0105                     	;# 
   121  0107                     	;# 
   122  0108                     	;# 
   123  0109                     	;# 
   124  010C                     	;# 
   125  010C                     	;# 
   126  010D                     	;# 
   127  010E                     	;# 
   128  010F                     	;# 
   129  0185                     	;# 
   130  0187                     	;# 
   131  0188                     	;# 
   132  0189                     	;# 
   133  018C                     	;# 
   134  018D                     	;# 
   135  0000                     	;# 
   136  0001                     	;# 
   137  0002                     	;# 
   138  0003                     	;# 
   139  0004                     	;# 
   140  0005                     	;# 
   141  0006                     	;# 
   142  0007                     	;# 
   143  0008                     	;# 
   144  0009                     	;# 
   145  000A                     	;# 
   146  000B                     	;# 
   147  000C                     	;# 
   148  000D                     	;# 
   149  000E                     	;# 
   150  000E                     	;# 
   151  000F                     	;# 
   152  0010                     	;# 
   153  0011                     	;# 
   154  0012                     	;# 
   155  0013                     	;# 
   156  0014                     	;# 
   157  0015                     	;# 
   158  0015                     	;# 
   159  0016                     	;# 
   160  0017                     	;# 
   161  0018                     	;# 
   162  0019                     	;# 
   163  001A                     	;# 
   164  001B                     	;# 
   165  001B                     	;# 
   166  001C                     	;# 
   167  001D                     	;# 
   168  001E                     	;# 
   169  001F                     	;# 
   170  0081                     	;# 
   171  0085                     	;# 
   172  0086                     	;# 
   173  0087                     	;# 
   174  0088                     	;# 
   175  0089                     	;# 
   176  008C                     	;# 
   177  008D                     	;# 
   178  008E                     	;# 
   179  008F                     	;# 
   180  0090                     	;# 
   181  0091                     	;# 
   182  0092                     	;# 
   183  0093                     	;# 
   184  0093                     	;# 
   185  0093                     	;# 
   186  0094                     	;# 
   187  0095                     	;# 
   188  0096                     	;# 
   189  0097                     	;# 
   190  0098                     	;# 
   191  0099                     	;# 
   192  009A                     	;# 
   193  009B                     	;# 
   194  009C                     	;# 
   195  009D                     	;# 
   196  009E                     	;# 
   197  009F                     	;# 
   198  0105                     	;# 
   199  0107                     	;# 
   200  0108                     	;# 
   201  0109                     	;# 
   202  010C                     	;# 
   203  010C                     	;# 
   204  010D                     	;# 
   205  010E                     	;# 
   206  010F                     	;# 
   207  0185                     	;# 
   208  0187                     	;# 
   209  0188                     	;# 
   210  0189                     	;# 
   211  018C                     	;# 
   212  018D                     	;# 
   213  0000                     	;# 
   214  0001                     	;# 
   215  0002                     	;# 
   216  0003                     	;# 
   217  0004                     	;# 
   218  0005                     	;# 
   219  0006                     	;# 
   220  0007                     	;# 
   221  0008                     	;# 
   222  0009                     	;# 
   223  000A                     	;# 
   224  000B                     	;# 
   225  000C                     	;# 
   226  000D                     	;# 
   227  000E                     	;# 
   228  000E                     	;# 
   229  000F                     	;# 
   230  0010                     	;# 
   231  0011                     	;# 
   232  0012                     	;# 
   233  0013                     	;# 
   234  0014                     	;# 
   235  0015                     	;# 
   236  0015                     	;# 
   237  0016                     	;# 
   238  0017                     	;# 
   239  0018                     	;# 
   240  0019                     	;# 
   241  001A                     	;# 
   242  001B                     	;# 
   243  001B                     	;# 
   244  001C                     	;# 
   245  001D                     	;# 
   246  001E                     	;# 
   247  001F                     	;# 
   248  0081                     	;# 
   249  0085                     	;# 
   250  0086                     	;# 
   251  0087                     	;# 
   252  0088                     	;# 
   253  0089                     	;# 
   254  008C                     	;# 
   255  008D                     	;# 
   256  008E                     	;# 
   257  008F                     	;# 
   258  0090                     	;# 
   259  0091                     	;# 
   260  0092                     	;# 
   261  0093                     	;# 
   262  0093                     	;# 
   263  0093                     	;# 
   264  0094                     	;# 
   265  0095                     	;# 
   266  0096                     	;# 
   267  0097                     	;# 
   268  0098                     	;# 
   269  0099                     	;# 
   270  009A                     	;# 
   271  009B                     	;# 
   272  009C                     	;# 
   273  009D                     	;# 
   274  009E                     	;# 
   275  009F                     	;# 
   276  0105                     	;# 
   277  0107                     	;# 
   278  0108                     	;# 
   279  0109                     	;# 
   280  010C                     	;# 
   281  010C                     	;# 
   282  010D                     	;# 
   283  010E                     	;# 
   284  010F                     	;# 
   285  0185                     	;# 
   286  0187                     	;# 
   287  0188                     	;# 
   288  0189                     	;# 
   289  018C                     	;# 
   290  018D                     	;# 
   291  0000                     	;# 
   292  0001                     	;# 
   293  0002                     	;# 
   294  0003                     	;# 
   295  0004                     	;# 
   296  0005                     	;# 
   297  0006                     	;# 
   298  0007                     	;# 
   299  0008                     	;# 
   300  0009                     	;# 
   301  000A                     	;# 
   302  000B                     	;# 
   303  000C                     	;# 
   304  000D                     	;# 
   305  000E                     	;# 
   306  000E                     	;# 
   307  000F                     	;# 
   308  0010                     	;# 
   309  0011                     	;# 
   310  0012                     	;# 
   311  0013                     	;# 
   312  0014                     	;# 
   313  0015                     	;# 
   314  0015                     	;# 
   315  0016                     	;# 
   316  0017                     	;# 
   317  0018                     	;# 
   318  0019                     	;# 
   319  001A                     	;# 
   320  001B                     	;# 
   321  001B                     	;# 
   322  001C                     	;# 
   323  001D                     	;# 
   324  001E                     	;# 
   325  001F                     	;# 
   326  0081                     	;# 
   327  0085                     	;# 
   328  0086                     	;# 
   329  0087                     	;# 
   330  0088                     	;# 
   331  0089                     	;# 
   332  008C                     	;# 
   333  008D                     	;# 
   334  008E                     	;# 
   335  008F                     	;# 
   336  0090                     	;# 
   337  0091                     	;# 
   338  0092                     	;# 
   339  0093                     	;# 
   340  0093                     	;# 
   341  0093                     	;# 
   342  0094                     	;# 
   343  0095                     	;# 
   344  0096                     	;# 
   345  0097                     	;# 
   346  0098                     	;# 
   347  0099                     	;# 
   348  009A                     	;# 
   349  009B                     	;# 
   350  009C                     	;# 
   351  009D                     	;# 
   352  009E                     	;# 
   353  009F                     	;# 
   354  0105                     	;# 
   355  0107                     	;# 
   356  0108                     	;# 
   357  0109                     	;# 
   358  010C                     	;# 
   359  010C                     	;# 
   360  010D                     	;# 
   361  010E                     	;# 
   362  010F                     	;# 
   363  0185                     	;# 
   364  0187                     	;# 
   365  0188                     	;# 
   366  0189                     	;# 
   367  018C                     	;# 
   368  018D                     	;# 
   369  0014                     _SSPCON	set	20
   370  000B                     _INTCON	set	11
   371  000D                     _PIR2	set	13
   372  000C                     _PIR1	set	12
   373  0009                     _PORTE	set	9
   374  0007                     _PORTC	set	7
   375  0006                     _PORTB	set	6
   376  0005                     _PORTA	set	5
   377  0008                     _PORTD	set	8
   378  0013                     _SSPBUF	set	19
   379  0014                     _SSPCONbits	set	20
   380  000C                     _PIR1bits	set	12
   381  000B                     _INTCONbits	set	11
   382  0018                     _RCSTAbits	set	24
   383  001F                     _ADCON0bits	set	31
   384  0029                     _RA1	set	41
   385  0028                     _RA0	set	40
   386  0063                     _SSPIF	set	99
   387  005E                     _PEIE	set	94
   388  005F                     _GIE	set	95
   389  0085                     _TRISAbits	set	133
   390  0091                     _SSPCON2bits	set	145
   391  0087                     _TRISCbits	set	135
   392  0094                     _SSPSTAT	set	148
   393  0093                     _SSPADD	set	147
   394  0091                     _SSPCON2	set	145
   395  008D                     _PIE2	set	141
   396  008C                     _PIE1	set	140
   397  0089                     _TRISE	set	137
   398  0088                     _TRISD	set	136
   399  0087                     _TRISC	set	135
   400  0094                     _SSPSTATbits	set	148
   401  0081                     _OPTION_REG	set	129
   402  0096                     _IOCB	set	150
   403  0095                     _WPUB	set	149
   404  0086                     _TRISB	set	134
   405  009A                     _SPBRGH	set	154
   406  0099                     _SPBRG	set	153
   407  0098                     _TXSTAbits	set	152
   408  008C                     _PIE1bits	set	140
   409  009F                     _ADCON1bits	set	159
   410  0085                     _TRISA	set	133
   411  008F                     _OSCCONbits	set	143
   412  0463                     _SSPIE	set	1123
   413  043C                     _TRISC4	set	1084
   414  043B                     _TRISC3	set	1083
   415  04A0                     _BF	set	1184
   416  0187                     _BAUDCTLbits	set	391
   417  0189                     _ANSELH	set	393
   418  0188                     _ANSEL	set	392
   419                           
   420                           	psect	cinit
   421  000F                     start_initialization:	
   422                           ; #config settings
   423                           
   424  000F                     __initialization:
   425                           
   426                           ; Clear objects allocated to COMMON
   427  000F  01F8               	clrf	__pbssCOMMON& (0+127)
   428  0010  01F9               	clrf	(__pbssCOMMON+1)& (0+127)
   429  0011  01FA               	clrf	(__pbssCOMMON+2)& (0+127)
   430                           
   431                           ; Clear objects allocated to BANK0
   432  0012  1283               	bcf	3,5	;RP0=0, select bank0
   433  0013  1303               	bcf	3,6	;RP1=0, select bank0
   434  0014  01C0               	clrf	__pbssBANK0& (0+127)
   435  0015  01C1               	clrf	(__pbssBANK0+1)& (0+127)
   436  0016  01C2               	clrf	(__pbssBANK0+2)& (0+127)
   437  0017  01C3               	clrf	(__pbssBANK0+3)& (0+127)
   438  0018  01C4               	clrf	(__pbssBANK0+4)& (0+127)
   439  0019  01C5               	clrf	(__pbssBANK0+5)& (0+127)
   440  001A  01C6               	clrf	(__pbssBANK0+6)& (0+127)
   441  001B  01C7               	clrf	(__pbssBANK0+7)& (0+127)
   442  001C                     end_of_initialization:	
   443                           ;End of C runtime variable initialization code
   444                           
   445  001C                     __end_of__initialization:
   446  001C  0183               	clrf	3
   447  001D  120A  118A  2A6C   	ljmp	_main	;jump to C main() function
   448                           
   449                           	psect	bssCOMMON
   450  0078                     __pbssCOMMON:
   451  0078                     _outI2C:
   452  0078                     	ds	1
   453  0079                     _z:
   454  0079                     	ds	1
   455  007A                     _flagint:
   456  007A                     	ds	1
   457                           
   458                           	psect	bssBANK0
   459  0040                     __pbssBANK0:
   460  0040                     _offset:
   461  0040                     	ds	4
   462  0044                     _weight:
   463  0044                     	ds	1
   464  0045                     _varPot0:
   465  0045                     	ds	1
   466  0046                     _inI2C:
   467  0046                     	ds	1
   468  0047                     _cont:
   469  0047                     	ds	1
   470                           
   471                           	psect	cstackCOMMON
   472  0070                     __pcstackCOMMON:
   473  0070                     ?_setup:
   474  0070                     ?_hx711_init:	
   475                           ; 1 bytes @ 0x0
   476                           
   477  0070                     ?_initOsc:	
   478                           ; 1 bytes @ 0x0
   479                           
   480  0070                     ?_isr:	
   481                           ; 1 bytes @ 0x0
   482                           
   483  0070                     ??_isr:	
   484                           ; 1 bytes @ 0x0
   485                           
   486  0070                     ?_main:	
   487                           ; 1 bytes @ 0x0
   488                           
   489  0070                     ?_hx711_pulso:	
   490                           ; 1 bytes @ 0x0
   491                           
   492                           
   493                           ; 1 bytes @ 0x0
   494  0070                     	ds	3
   495  0073                     ??_hx711_init:
   496  0073                     ??_initOsc:	
   497                           ; 1 bytes @ 0x3
   498                           
   499  0073                     ??_hx711_pulso:	
   500                           ; 1 bytes @ 0x3
   501                           
   502  0073                     ??___aldiv:	
   503                           ; 1 bytes @ 0x3
   504                           
   505  0073                     hx711_pulso@lec:	
   506                           ; 1 bytes @ 0x3
   507                           
   508                           
   509                           ; 1 bytes @ 0x3
   510  0073                     	ds	1
   511  0074                     ?_hx711_lectura:
   512                           
   513                           ; 4 bytes @ 0x4
   514  0074                     	ds	1
   515  0075                     initOsc@frec:
   516                           
   517                           ; 1 bytes @ 0x5
   518  0075                     	ds	1
   519  0076                     ??_setup:
   520                           
   521                           ; 1 bytes @ 0x6
   522  0076                     	ds	2
   523                           
   524                           	psect	cstackBANK0
   525  0020                     __pcstackBANK0:
   526  0020                     ??_hx711_lectura:
   527  0020                     ?___aldiv:	
   528                           ; 1 bytes @ 0x0
   529                           
   530  0020                     ___aldiv@divisor:	
   531                           ; 4 bytes @ 0x0
   532                           
   533                           
   534                           ; 4 bytes @ 0x0
   535  0020                     	ds	4
   536  0024                     ___aldiv@dividend:
   537                           
   538                           ; 4 bytes @ 0x4
   539  0024                     	ds	4
   540  0028                     hx711_lectura@cont:
   541  0028                     ___aldiv@counter:	
   542                           ; 1 bytes @ 0x8
   543                           
   544                           
   545                           ; 1 bytes @ 0x8
   546  0028                     	ds	1
   547  0029                     hx711_lectura@ganancia:
   548  0029                     ___aldiv@sign:	
   549                           ; 1 bytes @ 0x9
   550                           
   551                           
   552                           ; 1 bytes @ 0x9
   553  0029                     	ds	1
   554  002A                     hx711_lectura@dato:
   555  002A                     ___aldiv@quotient:	
   556                           ; 4 bytes @ 0xA
   557                           
   558                           
   559                           ; 4 bytes @ 0xA
   560  002A                     	ds	4
   561  002E                     ?_hx711_promedio:
   562  002E                     hx711_promedio@ganancia:	
   563                           ; 4 bytes @ 0xE
   564                           
   565                           
   566                           ; 1 bytes @ 0xE
   567  002E                     	ds	4
   568  0032                     ??_hx711_promedio:
   569                           
   570                           ; 1 bytes @ 0x12
   571  0032                     	ds	4
   572  0036                     hx711_promedio@veces:
   573                           
   574                           ; 1 bytes @ 0x16
   575  0036                     	ds	1
   576  0037                     hx711_promedio@prom:
   577                           
   578                           ; 4 bytes @ 0x17
   579  0037                     	ds	4
   580  003B                     hx711_promedio@cont:
   581                           
   582                           ; 1 bytes @ 0x1B
   583  003B                     	ds	1
   584  003C                     ?_tarar:
   585  003C                     tarar@ganancia:	
   586                           ; 1 bytes @ 0x1C
   587                           
   588                           
   589                           ; 1 bytes @ 0x1C
   590  003C                     	ds	1
   591  003D                     ??_tarar:
   592                           
   593                           ; 1 bytes @ 0x1D
   594  003D                     	ds	1
   595  003E                     tarar@veces:
   596                           
   597                           ; 1 bytes @ 0x1E
   598  003E                     	ds	1
   599  003F                     ??_main:
   600                           
   601                           ; 1 bytes @ 0x1F
   602  003F                     	ds	1
   603                           
   604                           	psect	maintext
   605  026C                     __pmaintext:	
   606 ;;
   607 ;;Main: autosize = 0, tempsize = 1, incstack = 0, save=0
   608 ;;
   609 ;; *************** function _main *****************
   610 ;; Defined at:
   611 ;;		line 108 in file "MainSlave1.c"
   612 ;; Parameters:    Size  Location     Type
   613 ;;		None
   614 ;; Auto vars:     Size  Location     Type
   615 ;;		None
   616 ;; Return value:  Size  Location     Type
   617 ;;                  1    wreg      void 
   618 ;; Registers used:
   619 ;;		wreg, fsr0l, fsr0h, status,2, status,0, pclath, cstack
   620 ;; Tracked objects:
   621 ;;		On entry : B00/0
   622 ;;		On exit  : 0/0
   623 ;;		Unchanged: 0/0
   624 ;; Data sizes:     COMMON   BANK0   BANK1   BANK3   BANK2
   625 ;;      Params:         0       0       0       0       0
   626 ;;      Locals:         0       0       0       0       0
   627 ;;      Temps:          0       1       0       0       0
   628 ;;      Totals:         0       1       0       0       0
   629 ;;Total ram usage:        1 bytes
   630 ;; Hardware stack levels required when called: 5
   631 ;; This function calls:
   632 ;;		_hx711_init
   633 ;;		_setup
   634 ;;		_tarar
   635 ;; This function is called by:
   636 ;;		Startup code after reset
   637 ;; This function uses a non-reentrant model
   638 ;;
   639                           
   640                           
   641                           ;psect for function _main
   642  026C                     _main:
   643  026C                     l1656:	
   644                           ;incstack = 0
   645                           ; Regs used in _main: [wreg-fsr0h+status,2+status,0+pclath+cstack]
   646                           
   647                           
   648                           ;MainSlave1.c: 109: 
   649  026C  120A  118A  2247  120A  118A  	fcall	_setup
   650  0271                     l1658:
   651                           
   652                           ;MainSlave1.c: 110:   PIE1 = 0b00000000;
   653  0271  120A  118A  22A6  120A  118A  	fcall	_hx711_init
   654  0276                     l1660:
   655                           
   656                           ;MainSlave1.c: 111:   PIE2 = 0b00000000;
   657  0276  3080               	movlw	128
   658  0277  1283               	bcf	3,5	;RP0=0, select bank0
   659  0278  1303               	bcf	3,6	;RP1=0, select bank0
   660  0279  00BF               	movwf	??_main
   661  027A  083F               	movf	??_main,w
   662  027B  00BC               	movwf	tarar@ganancia
   663  027C  3002               	movlw	2
   664  027D  120A  118A  228E  120A  118A  	fcall	_tarar
   665  0282                     l1662:
   666  0282  1283               	bcf	3,5	;RP0=0, select bank0
   667  0283  1303               	bcf	3,6	;RP1=0, select bank0
   668  0284  0844               	movf	_weight,w
   669  0285  0088               	movwf	8	;volatile
   670  0286                     l1664:
   671  0286  30FF               	movlw	255
   672  0287  00BF               	movwf	??_main
   673  0288  083F               	movf	??_main,w
   674  0289  00C4               	movwf	_weight
   675  028A  2A82               	goto	l1662
   676  028B  120A  118A  280C   	ljmp	start
   677  028E                     __end_of_main:
   678                           
   679                           	psect	text1
   680  028E                     __ptext1:	
   681 ;; *************** function _tarar *****************
   682 ;; Defined at:
   683 ;;		line 80 in file "HX711.c"
   684 ;; Parameters:    Size  Location     Type
   685 ;;  veces           1    wreg     unsigned char 
   686 ;;  ganancia        1   28[BANK0 ] unsigned char 
   687 ;; Auto vars:     Size  Location     Type
   688 ;;  veces           1   30[BANK0 ] unsigned char 
   689 ;; Return value:  Size  Location     Type
   690 ;;                  1    wreg      void 
   691 ;; Registers used:
   692 ;;		wreg, status,2, status,0, pclath, cstack
   693 ;; Tracked objects:
   694 ;;		On entry : 0/0
   695 ;;		On exit  : 0/0
   696 ;;		Unchanged: 0/0
   697 ;; Data sizes:     COMMON   BANK0   BANK1   BANK3   BANK2
   698 ;;      Params:         0       1       0       0       0
   699 ;;      Locals:         0       1       0       0       0
   700 ;;      Temps:          0       1       0       0       0
   701 ;;      Totals:         0       3       0       0       0
   702 ;;Total ram usage:        3 bytes
   703 ;; Hardware stack levels used: 1
   704 ;; Hardware stack levels required when called: 4
   705 ;; This function calls:
   706 ;;		_hx711_promedio
   707 ;; This function is called by:
   708 ;;		_main
   709 ;; This function uses a non-reentrant model
   710 ;;
   711                           
   712                           
   713                           ;psect for function _tarar
   714  028E                     _tarar:
   715                           
   716                           ;incstack = 0
   717                           ; Regs used in _tarar: [wreg+status,2+status,0+pclath+cstack]
   718                           ;tarar@veces stored from wreg
   719  028E  1283               	bcf	3,5	;RP0=0, select bank0
   720  028F  1303               	bcf	3,6	;RP1=0, select bank0
   721  0290  00BE               	movwf	tarar@veces
   722  0291                     l1654:
   723                           
   724                           ;HX711.c: 80: void tarar(uint8_t veces, uint8_t ganancia);HX711.c: 81:  {;HX711.c: 82:  
      +                                  offset = hx711_promedio(veces,ganancia);
   725  0291  083C               	movf	tarar@ganancia,w
   726  0292  00BD               	movwf	??_tarar
   727  0293  083D               	movf	??_tarar,w
   728  0294  00AE               	movwf	hx711_promedio@ganancia
   729  0295  083E               	movf	tarar@veces,w
   730  0296  120A  118A  20BD  120A  118A  	fcall	_hx711_promedio
   731  029B  1283               	bcf	3,5	;RP0=0, select bank0
   732  029C  1303               	bcf	3,6	;RP1=0, select bank0
   733  029D  0831               	movf	?_hx711_promedio+3,w
   734  029E  00C3               	movwf	_offset+3
   735  029F  0830               	movf	?_hx711_promedio+2,w
   736  02A0  00C2               	movwf	_offset+2
   737  02A1  082F               	movf	?_hx711_promedio+1,w
   738  02A2  00C1               	movwf	_offset+1
   739  02A3  082E               	movf	?_hx711_promedio,w
   740  02A4  00C0               	movwf	_offset
   741  02A5                     l312:
   742  02A5  0008               	return
   743  02A6                     __end_of_tarar:
   744                           
   745                           	psect	text2
   746  00BD                     __ptext2:	
   747 ;; *************** function _hx711_promedio *****************
   748 ;; Defined at:
   749 ;;		line 68 in file "HX711.c"
   750 ;; Parameters:    Size  Location     Type
   751 ;;  veces           1    wreg     unsigned char 
   752 ;;  ganancia        1   14[BANK0 ] unsigned char 
   753 ;; Auto vars:     Size  Location     Type
   754 ;;  veces           1   22[BANK0 ] unsigned char 
   755 ;;  prom            4   23[BANK0 ] long 
   756 ;;  cont            1   27[BANK0 ] unsigned char 
   757 ;; Return value:  Size  Location     Type
   758 ;;                  4   14[BANK0 ] long 
   759 ;; Registers used:
   760 ;;		wreg, status,2, status,0, pclath, cstack
   761 ;; Tracked objects:
   762 ;;		On entry : 0/0
   763 ;;		On exit  : 0/0
   764 ;;		Unchanged: 0/0
   765 ;; Data sizes:     COMMON   BANK0   BANK1   BANK3   BANK2
   766 ;;      Params:         0       4       0       0       0
   767 ;;      Locals:         0       6       0       0       0
   768 ;;      Temps:          0       4       0       0       0
   769 ;;      Totals:         0      14       0       0       0
   770 ;;Total ram usage:       14 bytes
   771 ;; Hardware stack levels used: 1
   772 ;; Hardware stack levels required when called: 3
   773 ;; This function calls:
   774 ;;		___aldiv
   775 ;;		_hx711_lectura
   776 ;; This function is called by:
   777 ;;		_tarar
   778 ;; This function uses a non-reentrant model
   779 ;;
   780                           
   781                           
   782                           ;psect for function _hx711_promedio
   783  00BD                     _hx711_promedio:
   784                           
   785                           ;incstack = 0
   786                           ; Regs used in _hx711_promedio: [wreg+status,2+status,0+pclath+cstack]
   787                           ;hx711_promedio@veces stored from wreg
   788  00BD  1283               	bcf	3,5	;RP0=0, select bank0
   789  00BE  1303               	bcf	3,6	;RP1=0, select bank0
   790  00BF  00B6               	movwf	hx711_promedio@veces
   791  00C0                     l1638:
   792                           
   793                           ;HX711.c: 68: int32_t hx711_promedio(uint8_t veces, uint8_t ganancia);HX711.c: 69:  {;HX
      +                          711.c: 70:         int32_t prom = 0;
   794  00C0  3000               	movlw	0
   795  00C1  00BA               	movwf	hx711_promedio@prom+3
   796  00C2  3000               	movlw	0
   797  00C3  00B9               	movwf	hx711_promedio@prom+2
   798  00C4  3000               	movlw	0
   799  00C5  00B8               	movwf	hx711_promedio@prom+1
   800  00C6  3000               	movlw	0
   801  00C7  00B7               	movwf	hx711_promedio@prom
   802  00C8                     l1640:
   803                           
   804                           ;HX711.c: 71:         uint8_t cont;;HX711.c: 73:         for (cont = 0; cont < veces; co
      +                          nt++){
   805  00C8  01BB               	clrf	hx711_promedio@cont
   806  00C9  2905               	goto	l1648
   807  00CA                     l1642:
   808                           
   809                           ;HX711.c: 74:           prom = prom + hx711_lectura(ganancia);
   810  00CA  082E               	movf	hx711_promedio@ganancia,w
   811  00CB  120A  118A  21EF  120A  118A  	fcall	_hx711_lectura
   812  00D0  0874               	movf	?_hx711_lectura,w
   813  00D1  1283               	bcf	3,5	;RP0=0, select bank0
   814  00D2  1303               	bcf	3,6	;RP1=0, select bank0
   815  00D3  0737               	addwf	hx711_promedio@prom,w
   816  00D4  00B2               	movwf	??_hx711_promedio
   817  00D5  3000               	movlw	0
   818  00D6  1803               	skipnc
   819  00D7  3001               	movlw	1
   820  00D8  0775               	addwf	?_hx711_lectura+1,w
   821  00D9  01B4               	clrf	??_hx711_promedio+2
   822  00DA  1803               	skipnc
   823  00DB  0AB4               	incf	??_hx711_promedio+2,f
   824  00DC  0738               	addwf	hx711_promedio@prom+1,w
   825  00DD  00B3               	movwf	??_hx711_promedio+1
   826  00DE  1803               	skipnc
   827  00DF  0AB4               	incf	??_hx711_promedio+2,f
   828  00E0  0876               	movf	?_hx711_lectura+2,w
   829  00E1  0734               	addwf	??_hx711_promedio+2,w
   830  00E2  01B5               	clrf	??_hx711_promedio+3
   831  00E3  1803               	skipnc
   832  00E4  0AB5               	incf	??_hx711_promedio+3,f
   833  00E5  0739               	addwf	hx711_promedio@prom+2,w
   834  00E6  00B4               	movwf	??_hx711_promedio+2
   835  00E7  1803               	skipnc
   836  00E8  0AB5               	incf	??_hx711_promedio+3,f
   837  00E9  0877               	movf	?_hx711_lectura+3,w
   838  00EA  0735               	addwf	??_hx711_promedio+3,w
   839  00EB  073A               	addwf	hx711_promedio@prom+3,w
   840  00EC  00B5               	movwf	??_hx711_promedio+3
   841  00ED  0835               	movf	??_hx711_promedio+3,w
   842  00EE  00BA               	movwf	hx711_promedio@prom+3
   843  00EF  0834               	movf	??_hx711_promedio+2,w
   844  00F0  00B9               	movwf	hx711_promedio@prom+2
   845  00F1  0833               	movf	??_hx711_promedio+1,w
   846  00F2  00B8               	movwf	hx711_promedio@prom+1
   847  00F3  0832               	movf	??_hx711_promedio,w
   848  00F4  00B7               	movwf	hx711_promedio@prom
   849  00F5                     l1644:
   850                           
   851                           ;HX711.c: 75:            _delay((unsigned long)((100)*(4000000/4000.0)));
   852  00F5  3082               	movlw	130
   853  00F6  1283               	bcf	3,5	;RP0=0, select bank0
   854  00F7  1303               	bcf	3,6	;RP1=0, select bank0
   855  00F8  00B3               	movwf	??_hx711_promedio+1
   856  00F9  30DD               	movlw	221
   857  00FA  00B2               	movwf	??_hx711_promedio
   858  00FB                     u787:
   859  00FB  0BB2               	decfsz	??_hx711_promedio,f
   860  00FC  28FB               	goto	u787
   861  00FD  0BB3               	decfsz	??_hx711_promedio+1,f
   862  00FE  28FB               	goto	u787
   863  00FF                     l1646:
   864                           
   865                           ;HX711.c: 76:         }
   866  00FF  3001               	movlw	1
   867  0100  1283               	bcf	3,5	;RP0=0, select bank0
   868  0101  1303               	bcf	3,6	;RP1=0, select bank0
   869  0102  00B2               	movwf	??_hx711_promedio
   870  0103  0832               	movf	??_hx711_promedio,w
   871  0104  07BB               	addwf	hx711_promedio@cont,f
   872  0105                     l1648:
   873  0105  0836               	movf	hx711_promedio@veces,w
   874  0106  023B               	subwf	hx711_promedio@cont,w
   875  0107  1C03               	skipc
   876  0108  290A               	goto	u771
   877  0109  290B               	goto	u770
   878  010A                     u771:
   879  010A  28CA               	goto	l1642
   880  010B                     u770:
   881  010B                     l1650:
   882                           
   883                           ;HX711.c: 77:         return (prom / cont);
   884  010B  083B               	movf	hx711_promedio@cont,w
   885  010C  00B2               	movwf	??_hx711_promedio
   886  010D  01B3               	clrf	??_hx711_promedio+1
   887  010E  01B4               	clrf	??_hx711_promedio+2
   888  010F  01B5               	clrf	??_hx711_promedio+3
   889  0110  0835               	movf	??_hx711_promedio+3,w
   890  0111  00A3               	movwf	___aldiv@divisor+3
   891  0112  0834               	movf	??_hx711_promedio+2,w
   892  0113  00A2               	movwf	___aldiv@divisor+2
   893  0114  0833               	movf	??_hx711_promedio+1,w
   894  0115  00A1               	movwf	___aldiv@divisor+1
   895  0116  0832               	movf	??_hx711_promedio,w
   896  0117  00A0               	movwf	___aldiv@divisor
   897  0118  083A               	movf	hx711_promedio@prom+3,w
   898  0119  00A7               	movwf	___aldiv@dividend+3
   899  011A  0839               	movf	hx711_promedio@prom+2,w
   900  011B  00A6               	movwf	___aldiv@dividend+2
   901  011C  0838               	movf	hx711_promedio@prom+1,w
   902  011D  00A5               	movwf	___aldiv@dividend+1
   903  011E  0837               	movf	hx711_promedio@prom,w
   904  011F  00A4               	movwf	___aldiv@dividend
   905  0120  120A  118A  2020  120A  118A  	fcall	___aldiv
   906  0125  1283               	bcf	3,5	;RP0=0, select bank0
   907  0126  1303               	bcf	3,6	;RP1=0, select bank0
   908  0127  0823               	movf	?___aldiv+3,w
   909  0128  00B1               	movwf	?_hx711_promedio+3
   910  0129  0822               	movf	?___aldiv+2,w
   911  012A  00B0               	movwf	?_hx711_promedio+2
   912  012B  0821               	movf	?___aldiv+1,w
   913  012C  00AF               	movwf	?_hx711_promedio+1
   914  012D  0820               	movf	?___aldiv,w
   915  012E  00AE               	movwf	?_hx711_promedio
   916  012F                     l309:
   917  012F  0008               	return
   918  0130                     __end_of_hx711_promedio:
   919                           
   920                           	psect	text3
   921  01EF                     __ptext3:	
   922 ;; *************** function _hx711_lectura *****************
   923 ;; Defined at:
   924 ;;		line 28 in file "HX711.c"
   925 ;; Parameters:    Size  Location     Type
   926 ;;  ganancia        1    wreg     unsigned char 
   927 ;; Auto vars:     Size  Location     Type
   928 ;;  ganancia        1    9[BANK0 ] unsigned char 
   929 ;;  dato            4   10[BANK0 ] long 
   930 ;;  cont            1    8[BANK0 ] unsigned char 
   931 ;; Return value:  Size  Location     Type
   932 ;;                  4    4[COMMON] long 
   933 ;; Registers used:
   934 ;;		wreg, status,2, status,0, pclath, cstack
   935 ;; Tracked objects:
   936 ;;		On entry : 0/0
   937 ;;		On exit  : 0/0
   938 ;;		Unchanged: 0/0
   939 ;; Data sizes:     COMMON   BANK0   BANK1   BANK3   BANK2
   940 ;;      Params:         4       0       0       0       0
   941 ;;      Locals:         0       6       0       0       0
   942 ;;      Temps:          0       8       0       0       0
   943 ;;      Totals:         4      14       0       0       0
   944 ;;Total ram usage:       18 bytes
   945 ;; Hardware stack levels used: 1
   946 ;; Hardware stack levels required when called: 2
   947 ;; This function calls:
   948 ;;		_hx711_pulso
   949 ;; This function is called by:
   950 ;;		_hx711_promedio
   951 ;; This function uses a non-reentrant model
   952 ;;
   953                           
   954                           
   955                           ;psect for function _hx711_lectura
   956  01EF                     _hx711_lectura:
   957  01EF                     l1378:	
   958                           ;incstack = 0
   959                           ; Regs used in _hx711_lectura: [wreg+status,2+status,0+pclath+cstack]
   960                           
   961                           
   962                           ;HX711.c: 29:     uint8_t cont;;HX711.c: 30:     int32_t dato=0;
   963  01EF  3000               	movlw	0
   964  01F0  1283               	bcf	3,5	;RP0=0, select bank0
   965  01F1  1303               	bcf	3,6	;RP1=0, select bank0
   966  01F2  00AD               	movwf	hx711_lectura@dato+3
   967  01F3  3000               	movlw	0
   968  01F4  00AC               	movwf	hx711_lectura@dato+2
   969  01F5  3000               	movlw	0
   970  01F6  00AB               	movwf	hx711_lectura@dato+1
   971  01F7  3000               	movlw	0
   972  01F8  00AA               	movwf	hx711_lectura@dato
   973  01F9                     l290:	
   974                           ;HX711.c: 33:     while (RA1==1);
   975                           
   976  01F9  1885               	btfsc	5,1	;volatile
   977  01FA  29FC               	goto	u431
   978  01FB  29FD               	goto	u430
   979  01FC                     u431:
   980  01FC  29F9               	goto	l290
   981  01FD                     u430:
   982  01FD                     l1380:
   983                           
   984                           ;HX711.c: 35:   for (cont=23; cont>=0; cont--){
   985  01FD  3017               	movlw	23
   986  01FE  00A0               	movwf	??_hx711_lectura
   987  01FF  0820               	movf	??_hx711_lectura,w
   988  0200  00A8               	movwf	hx711_lectura@cont
   989  0201                     l1384:
   990                           
   991                           ;HX711.c: 36:      if (hx711_pulso()==1){
   992  0201  120A  118A  22BB  120A  118A  	fcall	_hx711_pulso
   993  0206  3A01               	xorlw	1
   994  0207  1D03               	skipz
   995  0208  2A0A               	goto	u441
   996  0209  2A0B               	goto	u440
   997  020A                     u441:
   998  020A  2A41               	goto	l295
   999  020B                     u440:
  1000  020B                     l1386:
  1001                           
  1002                           ;HX711.c: 37:        dato = dato +( 1L<<cont);
  1003  020B  1283               	bcf	3,5	;RP0=0, select bank0
  1004  020C  1303               	bcf	3,6	;RP1=0, select bank0
  1005  020D  082A               	movf	hx711_lectura@dato,w
  1006  020E  00A0               	movwf	??_hx711_lectura
  1007  020F  082B               	movf	hx711_lectura@dato+1,w
  1008  0210  00A1               	movwf	??_hx711_lectura+1
  1009  0211  082C               	movf	hx711_lectura@dato+2,w
  1010  0212  00A2               	movwf	??_hx711_lectura+2
  1011  0213  082D               	movf	hx711_lectura@dato+3,w
  1012  0214  00A3               	movwf	??_hx711_lectura+3
  1013  0215  3001               	movlw	1
  1014  0216  00A4               	movwf	??_hx711_lectura+4
  1015  0217  3000               	movlw	0
  1016  0218  00A5               	movwf	??_hx711_lectura+5
  1017  0219  3000               	movlw	0
  1018  021A  00A6               	movwf	??_hx711_lectura+6
  1019  021B  3000               	movlw	0
  1020  021C  00A7               	movwf	??_hx711_lectura+7
  1021  021D  0A28               	incf	hx711_lectura@cont,w
  1022  021E  2A24               	goto	u450
  1023  021F                     u455:
  1024  021F  1003               	clrc
  1025  0220  0DA4               	rlf	??_hx711_lectura+4,f
  1026  0221  0DA5               	rlf	??_hx711_lectura+5,f
  1027  0222  0DA6               	rlf	??_hx711_lectura+6,f
  1028  0223  0DA7               	rlf	??_hx711_lectura+7,f
  1029  0224                     u450:
  1030  0224  3EFF               	addlw	-1
  1031  0225  1D03               	skipz
  1032  0226  2A1F               	goto	u455
  1033  0227  0824               	movf	??_hx711_lectura+4,w
  1034  0228  07A0               	addwf	??_hx711_lectura,f
  1035  0229  0825               	movf	??_hx711_lectura+5,w
  1036  022A  1803               	skipnc
  1037  022B  0F25               	incfsz	??_hx711_lectura+5,w
  1038  022C  2A2E               	goto	u460
  1039  022D  2A2F               	goto	u461
  1040  022E                     u460:
  1041  022E  07A1               	addwf	??_hx711_lectura+1,f
  1042  022F                     u461:
  1043  022F  0826               	movf	??_hx711_lectura+6,w
  1044  0230  1803               	skipnc
  1045  0231  0F26               	incfsz	??_hx711_lectura+6,w
  1046  0232  2A34               	goto	u462
  1047  0233  2A35               	goto	u463
  1048  0234                     u462:
  1049  0234  07A2               	addwf	??_hx711_lectura+2,f
  1050  0235                     u463:
  1051  0235  0827               	movf	??_hx711_lectura+7,w
  1052  0236  1803               	skipnc
  1053  0237  0A27               	incf	??_hx711_lectura+7,w
  1054  0238  07A3               	addwf	??_hx711_lectura+3,f
  1055  0239  0823               	movf	??_hx711_lectura+3,w
  1056  023A  00AD               	movwf	hx711_lectura@dato+3
  1057  023B  0822               	movf	??_hx711_lectura+2,w
  1058  023C  00AC               	movwf	hx711_lectura@dato+2
  1059  023D  0821               	movf	??_hx711_lectura+1,w
  1060  023E  00AB               	movwf	hx711_lectura@dato+1
  1061  023F  0820               	movf	??_hx711_lectura,w
  1062  0240  00AA               	movwf	hx711_lectura@dato
  1063  0241                     l295:	
  1064                           ;HX711.c: 38:      }
  1065                           
  1066                           
  1067                           ;HX711.c: 39:   }
  1068  0241  3001               	movlw	1
  1069  0242  1283               	bcf	3,5	;RP0=0, select bank0
  1070  0243  1303               	bcf	3,6	;RP1=0, select bank0
  1071  0244  02A8               	subwf	hx711_lectura@cont,f
  1072  0245  2A01               	goto	l1384
  1073  0246  0008               	return
  1074  0247                     __end_of_hx711_lectura:
  1075                           
  1076                           	psect	text4
  1077  02BB                     __ptext4:	
  1078 ;; *************** function _hx711_pulso *****************
  1079 ;; Defined at:
  1080 ;;		line 18 in file "HX711.c"
  1081 ;; Parameters:    Size  Location     Type
  1082 ;;		None
  1083 ;; Auto vars:     Size  Location     Type
  1084 ;;  lec             1    3[COMMON] unsigned char 
  1085 ;; Return value:  Size  Location     Type
  1086 ;;                  1    wreg      char 
  1087 ;; Registers used:
  1088 ;;		wreg, status,2
  1089 ;; Tracked objects:
  1090 ;;		On entry : 0/0
  1091 ;;		On exit  : 0/0
  1092 ;;		Unchanged: 0/0
  1093 ;; Data sizes:     COMMON   BANK0   BANK1   BANK3   BANK2
  1094 ;;      Params:         0       0       0       0       0
  1095 ;;      Locals:         1       0       0       0       0
  1096 ;;      Temps:          0       0       0       0       0
  1097 ;;      Totals:         1       0       0       0       0
  1098 ;;Total ram usage:        1 bytes
  1099 ;; Hardware stack levels used: 1
  1100 ;; Hardware stack levels required when called: 1
  1101 ;; This function calls:
  1102 ;;		Nothing
  1103 ;; This function is called by:
  1104 ;;		_hx711_lectura
  1105 ;; This function uses a non-reentrant model
  1106 ;;
  1107                           
  1108                           
  1109                           ;psect for function _hx711_pulso
  1110  02BB                     _hx711_pulso:
  1111  02BB                     l1366:	
  1112                           ;incstack = 0
  1113                           ; Regs used in _hx711_pulso: [wreg+status,2]
  1114                           
  1115                           
  1116                           ;HX711.c: 19:     uint8_t lec;;HX711.c: 20:     RA0=1;
  1117  02BB  1283               	bcf	3,5	;RP0=0, select bank0
  1118  02BC  1303               	bcf	3,6	;RP1=0, select bank0
  1119  02BD  1405               	bsf	5,0	;volatile
  1120                           
  1121                           ;HX711.c: 21:     _delay((unsigned long)((1)*(4000000/4000000.0)));
  1122  02BE  0000               	nop
  1123  02BF                     l1368:
  1124                           
  1125                           ;HX711.c: 22:     lec=RA1;
  1126  02BF  3000               	movlw	0
  1127  02C0  1283               	bcf	3,5	;RP0=0, select bank0
  1128  02C1  1303               	bcf	3,6	;RP1=0, select bank0
  1129  02C2  1885               	btfsc	5,1	;volatile
  1130  02C3  3001               	movlw	1
  1131  02C4  00F3               	movwf	hx711_pulso@lec
  1132  02C5                     l1370:
  1133                           
  1134                           ;HX711.c: 23:     RA0=0;
  1135  02C5  1005               	bcf	5,0	;volatile
  1136  02C6                     l1372:
  1137                           
  1138                           ;HX711.c: 24:     _delay((unsigned long)((1)*(4000000/4000000.0)));
  1139  02C6  0000               	nop
  1140  02C7                     l1374:
  1141                           
  1142                           ;HX711.c: 25:     return lec;
  1143  02C7  0873               	movf	hx711_pulso@lec,w
  1144  02C8                     l287:
  1145  02C8  0008               	return
  1146  02C9                     __end_of_hx711_pulso:
  1147                           
  1148                           	psect	text5
  1149  0020                     __ptext5:	
  1150 ;; *************** function ___aldiv *****************
  1151 ;; Defined at:
  1152 ;;		line 5 in file "E:\Microchip\XC8\pic\sources\c90\common\aldiv.c"
  1153 ;; Parameters:    Size  Location     Type
  1154 ;;  divisor         4    0[BANK0 ] long 
  1155 ;;  dividend        4    4[BANK0 ] long 
  1156 ;; Auto vars:     Size  Location     Type
  1157 ;;  quotient        4   10[BANK0 ] long 
  1158 ;;  sign            1    9[BANK0 ] unsigned char 
  1159 ;;  counter         1    8[BANK0 ] unsigned char 
  1160 ;; Return value:  Size  Location     Type
  1161 ;;                  4    0[BANK0 ] long 
  1162 ;; Registers used:
  1163 ;;		wreg, status,2, status,0
  1164 ;; Tracked objects:
  1165 ;;		On entry : 0/0
  1166 ;;		On exit  : 0/0
  1167 ;;		Unchanged: 0/0
  1168 ;; Data sizes:     COMMON   BANK0   BANK1   BANK3   BANK2
  1169 ;;      Params:         0       8       0       0       0
  1170 ;;      Locals:         0       6       0       0       0
  1171 ;;      Temps:          1       0       0       0       0
  1172 ;;      Totals:         1      14       0       0       0
  1173 ;;Total ram usage:       15 bytes
  1174 ;; Hardware stack levels used: 1
  1175 ;; Hardware stack levels required when called: 1
  1176 ;; This function calls:
  1177 ;;		Nothing
  1178 ;; This function is called by:
  1179 ;;		_hx711_promedio
  1180 ;; This function uses a non-reentrant model
  1181 ;;
  1182                           
  1183                           
  1184                           ;psect for function ___aldiv
  1185  0020                     ___aldiv:
  1186  0020                     l1598:	
  1187                           ;incstack = 0
  1188                           ; Regs used in ___aldiv: [wreg+status,2+status,0]
  1189                           
  1190  0020  1283               	bcf	3,5	;RP0=0, select bank0
  1191  0021  1303               	bcf	3,6	;RP1=0, select bank0
  1192  0022  01A9               	clrf	___aldiv@sign
  1193  0023                     l1600:
  1194  0023  1FA3               	btfss	___aldiv@divisor+3,7
  1195  0024  2826               	goto	u671
  1196  0025  2827               	goto	u670
  1197  0026                     u671:
  1198  0026  2834               	goto	l463
  1199  0027                     u670:
  1200  0027                     l1602:
  1201  0027  09A0               	comf	___aldiv@divisor,f
  1202  0028  09A1               	comf	___aldiv@divisor+1,f
  1203  0029  09A2               	comf	___aldiv@divisor+2,f
  1204  002A  09A3               	comf	___aldiv@divisor+3,f
  1205  002B  0AA0               	incf	___aldiv@divisor,f
  1206  002C  1903               	skipnz
  1207  002D  0AA1               	incf	___aldiv@divisor+1,f
  1208  002E  1903               	skipnz
  1209  002F  0AA2               	incf	___aldiv@divisor+2,f
  1210  0030  1903               	skipnz
  1211  0031  0AA3               	incf	___aldiv@divisor+3,f
  1212  0032  01A9               	clrf	___aldiv@sign
  1213  0033  0AA9               	incf	___aldiv@sign,f
  1214  0034                     l463:
  1215  0034  1FA7               	btfss	___aldiv@dividend+3,7
  1216  0035  2837               	goto	u681
  1217  0036  2838               	goto	u680
  1218  0037                     u681:
  1219  0037  2847               	goto	l1608
  1220  0038                     u680:
  1221  0038                     l1604:
  1222  0038  09A4               	comf	___aldiv@dividend,f
  1223  0039  09A5               	comf	___aldiv@dividend+1,f
  1224  003A  09A6               	comf	___aldiv@dividend+2,f
  1225  003B  09A7               	comf	___aldiv@dividend+3,f
  1226  003C  0AA4               	incf	___aldiv@dividend,f
  1227  003D  1903               	skipnz
  1228  003E  0AA5               	incf	___aldiv@dividend+1,f
  1229  003F  1903               	skipnz
  1230  0040  0AA6               	incf	___aldiv@dividend+2,f
  1231  0041  1903               	skipnz
  1232  0042  0AA7               	incf	___aldiv@dividend+3,f
  1233  0043                     l1606:
  1234  0043  3001               	movlw	1
  1235  0044  00F3               	movwf	??___aldiv
  1236  0045  0873               	movf	??___aldiv,w
  1237  0046  06A9               	xorwf	___aldiv@sign,f
  1238  0047                     l1608:
  1239  0047  3000               	movlw	0
  1240  0048  00AD               	movwf	___aldiv@quotient+3
  1241  0049  3000               	movlw	0
  1242  004A  00AC               	movwf	___aldiv@quotient+2
  1243  004B  3000               	movlw	0
  1244  004C  00AB               	movwf	___aldiv@quotient+1
  1245  004D  3000               	movlw	0
  1246  004E  00AA               	movwf	___aldiv@quotient
  1247  004F                     l1610:
  1248  004F  0823               	movf	___aldiv@divisor+3,w
  1249  0050  0422               	iorwf	___aldiv@divisor+2,w
  1250  0051  0421               	iorwf	___aldiv@divisor+1,w
  1251  0052  0420               	iorwf	___aldiv@divisor,w
  1252  0053  1903               	skipnz
  1253  0054  2856               	goto	u691
  1254  0055  2857               	goto	u690
  1255  0056                     u691:
  1256  0056  28A4               	goto	l1630
  1257  0057                     u690:
  1258  0057                     l1612:
  1259  0057  01A8               	clrf	___aldiv@counter
  1260  0058  0AA8               	incf	___aldiv@counter,f
  1261  0059  2867               	goto	l1616
  1262  005A                     l1614:
  1263  005A  3001               	movlw	1
  1264  005B  00F3               	movwf	??___aldiv
  1265  005C                     u705:
  1266  005C  1003               	clrc
  1267  005D  0DA0               	rlf	___aldiv@divisor,f
  1268  005E  0DA1               	rlf	___aldiv@divisor+1,f
  1269  005F  0DA2               	rlf	___aldiv@divisor+2,f
  1270  0060  0DA3               	rlf	___aldiv@divisor+3,f
  1271  0061  0BF3               	decfsz	??___aldiv,f
  1272  0062  285C               	goto	u705
  1273  0063  3001               	movlw	1
  1274  0064  00F3               	movwf	??___aldiv
  1275  0065  0873               	movf	??___aldiv,w
  1276  0066  07A8               	addwf	___aldiv@counter,f
  1277  0067                     l1616:
  1278  0067  1FA3               	btfss	___aldiv@divisor+3,7
  1279  0068  286A               	goto	u711
  1280  0069  286B               	goto	u710
  1281  006A                     u711:
  1282  006A  285A               	goto	l1614
  1283  006B                     u710:
  1284  006B                     l1618:
  1285  006B  3001               	movlw	1
  1286  006C  00F3               	movwf	??___aldiv
  1287  006D                     u725:
  1288  006D  1003               	clrc
  1289  006E  0DAA               	rlf	___aldiv@quotient,f
  1290  006F  0DAB               	rlf	___aldiv@quotient+1,f
  1291  0070  0DAC               	rlf	___aldiv@quotient+2,f
  1292  0071  0DAD               	rlf	___aldiv@quotient+3,f
  1293  0072  0BF3               	decfsz	??___aldiv,f
  1294  0073  286D               	goto	u725
  1295  0074                     l1620:
  1296  0074  0823               	movf	___aldiv@divisor+3,w
  1297  0075  0227               	subwf	___aldiv@dividend+3,w
  1298  0076  1D03               	skipz
  1299  0077  2882               	goto	u735
  1300  0078  0822               	movf	___aldiv@divisor+2,w
  1301  0079  0226               	subwf	___aldiv@dividend+2,w
  1302  007A  1D03               	skipz
  1303  007B  2882               	goto	u735
  1304  007C  0821               	movf	___aldiv@divisor+1,w
  1305  007D  0225               	subwf	___aldiv@dividend+1,w
  1306  007E  1D03               	skipz
  1307  007F  2882               	goto	u735
  1308  0080  0820               	movf	___aldiv@divisor,w
  1309  0081  0224               	subwf	___aldiv@dividend,w
  1310  0082                     u735:
  1311  0082  1C03               	skipc
  1312  0083  2885               	goto	u731
  1313  0084  2886               	goto	u730
  1314  0085                     u731:
  1315  0085  2895               	goto	l1626
  1316  0086                     u730:
  1317  0086                     l1622:
  1318  0086  0820               	movf	___aldiv@divisor,w
  1319  0087  02A4               	subwf	___aldiv@dividend,f
  1320  0088  0821               	movf	___aldiv@divisor+1,w
  1321  0089  1C03               	skipc
  1322  008A  0F21               	incfsz	___aldiv@divisor+1,w
  1323  008B  02A5               	subwf	___aldiv@dividend+1,f
  1324  008C  0822               	movf	___aldiv@divisor+2,w
  1325  008D  1C03               	skipc
  1326  008E  0F22               	incfsz	___aldiv@divisor+2,w
  1327  008F  02A6               	subwf	___aldiv@dividend+2,f
  1328  0090  0823               	movf	___aldiv@divisor+3,w
  1329  0091  1C03               	skipc
  1330  0092  0F23               	incfsz	___aldiv@divisor+3,w
  1331  0093  02A7               	subwf	___aldiv@dividend+3,f
  1332  0094                     l1624:
  1333  0094  142A               	bsf	___aldiv@quotient,0
  1334  0095                     l1626:
  1335  0095  3001               	movlw	1
  1336  0096                     u745:
  1337  0096  1003               	clrc
  1338  0097  0CA3               	rrf	___aldiv@divisor+3,f
  1339  0098  0CA2               	rrf	___aldiv@divisor+2,f
  1340  0099  0CA1               	rrf	___aldiv@divisor+1,f
  1341  009A  0CA0               	rrf	___aldiv@divisor,f
  1342  009B  3EFF               	addlw	-1
  1343  009C  1D03               	skipz
  1344  009D  2896               	goto	u745
  1345  009E                     l1628:
  1346  009E  3001               	movlw	1
  1347  009F  02A8               	subwf	___aldiv@counter,f
  1348  00A0  1D03               	btfss	3,2
  1349  00A1  28A3               	goto	u751
  1350  00A2  28A4               	goto	u750
  1351  00A3                     u751:
  1352  00A3  286B               	goto	l1618
  1353  00A4                     u750:
  1354  00A4                     l1630:
  1355  00A4  0829               	movf	___aldiv@sign,w
  1356  00A5  1903               	btfsc	3,2
  1357  00A6  28A8               	goto	u761
  1358  00A7  28A9               	goto	u760
  1359  00A8                     u761:
  1360  00A8  28B4               	goto	l1634
  1361  00A9                     u760:
  1362  00A9                     l1632:
  1363  00A9  09AA               	comf	___aldiv@quotient,f
  1364  00AA  09AB               	comf	___aldiv@quotient+1,f
  1365  00AB  09AC               	comf	___aldiv@quotient+2,f
  1366  00AC  09AD               	comf	___aldiv@quotient+3,f
  1367  00AD  0AAA               	incf	___aldiv@quotient,f
  1368  00AE  1903               	skipnz
  1369  00AF  0AAB               	incf	___aldiv@quotient+1,f
  1370  00B0  1903               	skipnz
  1371  00B1  0AAC               	incf	___aldiv@quotient+2,f
  1372  00B2  1903               	skipnz
  1373  00B3  0AAD               	incf	___aldiv@quotient+3,f
  1374  00B4                     l1634:
  1375  00B4  082D               	movf	___aldiv@quotient+3,w
  1376  00B5  00A3               	movwf	?___aldiv+3
  1377  00B6  082C               	movf	___aldiv@quotient+2,w
  1378  00B7  00A2               	movwf	?___aldiv+2
  1379  00B8  082B               	movf	___aldiv@quotient+1,w
  1380  00B9  00A1               	movwf	?___aldiv+1
  1381  00BA  082A               	movf	___aldiv@quotient,w
  1382  00BB  00A0               	movwf	?___aldiv
  1383  00BC                     l473:
  1384  00BC  0008               	return
  1385  00BD                     __end_of___aldiv:
  1386                           
  1387                           	psect	text6
  1388  0247                     __ptext6:	
  1389 ;; *************** function _setup *****************
  1390 ;; Defined at:
  1391 ;;		line 127 in file "MainSlave1.c"
  1392 ;; Parameters:    Size  Location     Type
  1393 ;;		None
  1394 ;; Auto vars:     Size  Location     Type
  1395 ;;		None
  1396 ;; Return value:  Size  Location     Type
  1397 ;;                  1    wreg      void 
  1398 ;; Registers used:
  1399 ;;		wreg, fsr0l, fsr0h, status,2, status,0, pclath, cstack
  1400 ;; Tracked objects:
  1401 ;;		On entry : 0/0
  1402 ;;		On exit  : 0/0
  1403 ;;		Unchanged: 0/0
  1404 ;; Data sizes:     COMMON   BANK0   BANK1   BANK3   BANK2
  1405 ;;      Params:         0       0       0       0       0
  1406 ;;      Locals:         0       0       0       0       0
  1407 ;;      Temps:          0       0       0       0       0
  1408 ;;      Totals:         0       0       0       0       0
  1409 ;;Total ram usage:        0 bytes
  1410 ;; Hardware stack levels used: 1
  1411 ;; Hardware stack levels required when called: 2
  1412 ;; This function calls:
  1413 ;;		_initOsc
  1414 ;; This function is called by:
  1415 ;;		_main
  1416 ;; This function uses a non-reentrant model
  1417 ;;
  1418                           
  1419                           
  1420                           ;psect for function _setup
  1421  0247                     _setup:
  1422  0247                     l1492:	
  1423                           ;incstack = 0
  1424                           ; Regs used in _setup: [wreg-fsr0h+status,2+status,0+pclath+cstack]
  1425                           
  1426  0247  1683               	bsf	3,5	;RP0=1, select bank3
  1427  0248  1703               	bsf	3,6	;RP1=1, select bank3
  1428  0249  0189               	clrf	9	;volatile
  1429  024A                     l1494:
  1430  024A  3002               	movlw	2
  1431  024B  1683               	bsf	3,5	;RP0=1, select bank1
  1432  024C  1303               	bcf	3,6	;RP1=0, select bank1
  1433  024D  0085               	movwf	5	;volatile
  1434  024E                     l1496:
  1435  024E  0186               	clrf	6	;volatile
  1436  024F                     l1498:
  1437  024F  0187               	clrf	7	;volatile
  1438  0250                     l1500:
  1439  0250  0188               	clrf	8	;volatile
  1440  0251                     l1502:
  1441  0251  0189               	clrf	9	;volatile
  1442  0252                     l1504:
  1443  0252  30C4               	movlw	196
  1444  0253  0081               	movwf	1	;volatile
  1445  0254                     l1506:
  1446  0254  3004               	movlw	4
  1447  0255  120A  118A  2193  120A  118A  	fcall	_initOsc
  1448  025A                     l1508:
  1449  025A  1283               	bcf	3,5	;RP0=0, select bank0
  1450  025B  1303               	bcf	3,6	;RP1=0, select bank0
  1451  025C  0185               	clrf	5	;volatile
  1452  025D                     l1510:
  1453  025D  0186               	clrf	6	;volatile
  1454  025E                     l1512:
  1455  025E  0187               	clrf	7	;volatile
  1456  025F                     l1514:
  1457  025F  0188               	clrf	8	;volatile
  1458  0260                     l1516:
  1459  0260  0189               	clrf	9	;volatile
  1460  0261                     l1518:
  1461  0261  1683               	bsf	3,5	;RP0=1, select bank1
  1462  0262  1303               	bcf	3,6	;RP1=0, select bank1
  1463  0263  018C               	clrf	12	;volatile
  1464  0264                     l1520:
  1465  0264  018D               	clrf	13	;volatile
  1466  0265                     l1522:
  1467  0265  1283               	bcf	3,5	;RP0=0, select bank0
  1468  0266  1303               	bcf	3,6	;RP1=0, select bank0
  1469  0267  018C               	clrf	12	;volatile
  1470  0268                     l1524:
  1471  0268  018D               	clrf	13	;volatile
  1472  0269                     l1526:
  1473  0269  30C0               	movlw	192
  1474  026A  008B               	movwf	11	;volatile
  1475  026B                     l214:
  1476  026B  0008               	return
  1477  026C                     __end_of_setup:
  1478                           
  1479                           	psect	text7
  1480  0193                     __ptext7:	
  1481 ;; *************** function _initOsc *****************
  1482 ;; Defined at:
  1483 ;;		line 14 in file "./my_lib.h"
  1484 ;; Parameters:    Size  Location     Type
  1485 ;;  frec            1    wreg     unsigned char 
  1486 ;; Auto vars:     Size  Location     Type
  1487 ;;  frec            1    5[COMMON] unsigned char 
  1488 ;; Return value:  Size  Location     Type
  1489 ;;                  1    wreg      void 
  1490 ;; Registers used:
  1491 ;;		wreg, fsr0l, fsr0h, status,2, status,0
  1492 ;; Tracked objects:
  1493 ;;		On entry : 0/0
  1494 ;;		On exit  : 0/0
  1495 ;;		Unchanged: 0/0
  1496 ;; Data sizes:     COMMON   BANK0   BANK1   BANK3   BANK2
  1497 ;;      Params:         0       0       0       0       0
  1498 ;;      Locals:         1       0       0       0       0
  1499 ;;      Temps:          2       0       0       0       0
  1500 ;;      Totals:         3       0       0       0       0
  1501 ;;Total ram usage:        3 bytes
  1502 ;; Hardware stack levels used: 1
  1503 ;; Hardware stack levels required when called: 1
  1504 ;; This function calls:
  1505 ;;		Nothing
  1506 ;; This function is called by:
  1507 ;;		_setup
  1508 ;; This function uses a non-reentrant model
  1509 ;;
  1510                           
  1511                           
  1512                           ;psect for function _initOsc
  1513  0193                     _initOsc:
  1514                           
  1515                           ;incstack = 0
  1516                           ; Regs used in _initOsc: [wreg-fsr0h+status,2+status,0]
  1517                           ;initOsc@frec stored from wreg
  1518  0193  00F5               	movwf	initOsc@frec
  1519  0194                     l1466:
  1520                           
  1521                           ;./my_lib.h: 16:         switch(frec){
  1522  0194  29CB               	goto	l1470
  1523  0195                     l82:	
  1524                           ;./my_lib.h: 17:             case 8:
  1525                           
  1526                           
  1527                           ;./my_lib.h: 18:                 OSCCONbits.IRCF0 = 1;
  1528  0195  1683               	bsf	3,5	;RP0=1, select bank1
  1529  0196  1303               	bcf	3,6	;RP1=0, select bank1
  1530  0197  160F               	bsf	15,4	;volatile
  1531                           
  1532                           ;./my_lib.h: 19:                 OSCCONbits.IRCF1 = 1;
  1533  0198  168F               	bsf	15,5	;volatile
  1534                           
  1535                           ;./my_lib.h: 20:                 OSCCONbits.IRCF2 = 1;
  1536  0199  170F               	bsf	15,6	;volatile
  1537                           
  1538                           ;./my_lib.h: 21:                 break;
  1539  019A  29ED               	goto	l83
  1540  019B                     l84:	
  1541                           ;./my_lib.h: 23:             case 4:
  1542                           
  1543                           
  1544                           ;./my_lib.h: 24:                 OSCCONbits.IRCF0 = 0;
  1545  019B  1683               	bsf	3,5	;RP0=1, select bank1
  1546  019C  1303               	bcf	3,6	;RP1=0, select bank1
  1547  019D  120F               	bcf	15,4	;volatile
  1548                           
  1549                           ;./my_lib.h: 25:                 OSCCONbits.IRCF1 = 1;
  1550  019E  168F               	bsf	15,5	;volatile
  1551                           
  1552                           ;./my_lib.h: 26:                 OSCCONbits.IRCF2 = 1;
  1553  019F  170F               	bsf	15,6	;volatile
  1554                           
  1555                           ;./my_lib.h: 27:                 break;
  1556  01A0  29ED               	goto	l83
  1557  01A1                     l85:	
  1558                           ;./my_lib.h: 28:             case 2:
  1559                           
  1560                           
  1561                           ;./my_lib.h: 29:                 OSCCONbits.IRCF0 = 1;
  1562  01A1  1683               	bsf	3,5	;RP0=1, select bank1
  1563  01A2  1303               	bcf	3,6	;RP1=0, select bank1
  1564  01A3  160F               	bsf	15,4	;volatile
  1565                           
  1566                           ;./my_lib.h: 30:                 OSCCONbits.IRCF1 = 0;
  1567  01A4  128F               	bcf	15,5	;volatile
  1568                           
  1569                           ;./my_lib.h: 31:                 OSCCONbits.IRCF2 = 1;
  1570  01A5  170F               	bsf	15,6	;volatile
  1571                           
  1572                           ;./my_lib.h: 32:                 break;
  1573  01A6  29ED               	goto	l83
  1574  01A7                     l86:	
  1575                           ;./my_lib.h: 33:              case 1:
  1576                           
  1577                           
  1578                           ;./my_lib.h: 34:                 OSCCONbits.IRCF0 = 0;
  1579  01A7  1683               	bsf	3,5	;RP0=1, select bank1
  1580  01A8  1303               	bcf	3,6	;RP1=0, select bank1
  1581  01A9  120F               	bcf	15,4	;volatile
  1582                           
  1583                           ;./my_lib.h: 35:                 OSCCONbits.IRCF1 = 0;
  1584  01AA  128F               	bcf	15,5	;volatile
  1585                           
  1586                           ;./my_lib.h: 36:                 OSCCONbits.IRCF2 = 1;
  1587  01AB  170F               	bsf	15,6	;volatile
  1588                           
  1589                           ;./my_lib.h: 37:                 break;
  1590  01AC  29ED               	goto	l83
  1591  01AD                     l87:	
  1592                           ;./my_lib.h: 38:              case 50:
  1593                           
  1594                           
  1595                           ;./my_lib.h: 39:                 OSCCONbits.IRCF0 = 0;
  1596  01AD  1683               	bsf	3,5	;RP0=1, select bank1
  1597  01AE  1303               	bcf	3,6	;RP1=0, select bank1
  1598  01AF  120F               	bcf	15,4	;volatile
  1599                           
  1600                           ;./my_lib.h: 40:                 OSCCONbits.IRCF1 = 1;
  1601  01B0  168F               	bsf	15,5	;volatile
  1602                           
  1603                           ;./my_lib.h: 41:                 OSCCONbits.IRCF2 = 1;
  1604  01B1  170F               	bsf	15,6	;volatile
  1605                           
  1606                           ;./my_lib.h: 42:                 break;
  1607  01B2  29ED               	goto	l83
  1608  01B3                     l88:	
  1609                           ;./my_lib.h: 43:              case 25:
  1610                           
  1611                           
  1612                           ;./my_lib.h: 44:                 OSCCONbits.IRCF0 = 0;
  1613  01B3  1683               	bsf	3,5	;RP0=1, select bank1
  1614  01B4  1303               	bcf	3,6	;RP1=0, select bank1
  1615  01B5  120F               	bcf	15,4	;volatile
  1616                           
  1617                           ;./my_lib.h: 45:                 OSCCONbits.IRCF1 = 1;
  1618  01B6  168F               	bsf	15,5	;volatile
  1619                           
  1620                           ;./my_lib.h: 46:                 OSCCONbits.IRCF2 = 0;
  1621  01B7  130F               	bcf	15,6	;volatile
  1622                           
  1623                           ;./my_lib.h: 47:                 break;
  1624  01B8  29ED               	goto	l83
  1625  01B9                     l89:	
  1626                           ;./my_lib.h: 48:               case 12:
  1627                           
  1628                           
  1629                           ;./my_lib.h: 49:                 OSCCONbits.IRCF0 = 1;
  1630  01B9  1683               	bsf	3,5	;RP0=1, select bank1
  1631  01BA  1303               	bcf	3,6	;RP1=0, select bank1
  1632  01BB  160F               	bsf	15,4	;volatile
  1633                           
  1634                           ;./my_lib.h: 50:                 OSCCONbits.IRCF1 = 0;
  1635  01BC  128F               	bcf	15,5	;volatile
  1636                           
  1637                           ;./my_lib.h: 51:                 OSCCONbits.IRCF2 = 0;
  1638  01BD  130F               	bcf	15,6	;volatile
  1639                           
  1640                           ;./my_lib.h: 52:                 break;
  1641  01BE  29ED               	goto	l83
  1642  01BF                     l90:	
  1643                           ;./my_lib.h: 53:               case 31:
  1644                           
  1645                           
  1646                           ;./my_lib.h: 54:                 OSCCONbits.IRCF0 = 0;
  1647  01BF  1683               	bsf	3,5	;RP0=1, select bank1
  1648  01C0  1303               	bcf	3,6	;RP1=0, select bank1
  1649  01C1  120F               	bcf	15,4	;volatile
  1650                           
  1651                           ;./my_lib.h: 55:                 OSCCONbits.IRCF1 = 1;
  1652  01C2  168F               	bsf	15,5	;volatile
  1653                           
  1654                           ;./my_lib.h: 56:                 OSCCONbits.IRCF2 = 1;
  1655  01C3  170F               	bsf	15,6	;volatile
  1656                           
  1657                           ;./my_lib.h: 57:                 break;
  1658  01C4  29ED               	goto	l83
  1659  01C5                     l91:	
  1660                           ;./my_lib.h: 58:               default:
  1661                           
  1662                           
  1663                           ;./my_lib.h: 59:                 OSCCONbits.IRCF0 = 0;
  1664  01C5  1683               	bsf	3,5	;RP0=1, select bank1
  1665  01C6  1303               	bcf	3,6	;RP1=0, select bank1
  1666  01C7  120F               	bcf	15,4	;volatile
  1667                           
  1668                           ;./my_lib.h: 60:                 OSCCONbits.IRCF1 = 1;
  1669  01C8  168F               	bsf	15,5	;volatile
  1670                           
  1671                           ;./my_lib.h: 61:                 OSCCONbits.IRCF2 = 1;
  1672  01C9  170F               	bsf	15,6	;volatile
  1673                           
  1674                           ;./my_lib.h: 62:                 break;
  1675  01CA  29ED               	goto	l83
  1676  01CB                     l1470:
  1677  01CB  0875               	movf	initOsc@frec,w
  1678  01CC  00F3               	movwf	??_initOsc
  1679  01CD  01F4               	clrf	??_initOsc+1
  1680                           
  1681                           ; Switch on 2 bytes has been partitioned into a top level switch of size 1, and 1 sub-sw
      +                          itches
  1682                           ; Switch size 1, requested type "simple"
  1683                           ; Number of cases is 1, Range of values is 0 to 0
  1684                           ; switch strategies available:
  1685                           ; Name         Instructions Cycles
  1686                           ; simple_byte            4     3 (average)
  1687                           ; direct_byte           11     8 (fixed)
  1688                           ; jumptable            260     6 (fixed)
  1689                           ;	Chosen strategy is simple_byte
  1690  01CE  0874               	movf	??_initOsc+1,w
  1691  01CF  3A00               	xorlw	0	; case 0
  1692  01D0  1903               	skipnz
  1693  01D1  29D3               	goto	l1686
  1694  01D2  29C5               	goto	l91
  1695  01D3                     l1686:
  1696                           
  1697                           ; Switch size 1, requested type "simple"
  1698                           ; Number of cases is 8, Range of values is 1 to 50
  1699                           ; switch strategies available:
  1700                           ; Name         Instructions Cycles
  1701                           ; simple_byte           25    13 (average)
  1702                           ; direct_byte          161    11 (fixed)
  1703                           ; jumptable            263     9 (fixed)
  1704                           ;	Chosen strategy is simple_byte
  1705  01D3  0873               	movf	??_initOsc,w
  1706  01D4  3A01               	xorlw	1	; case 1
  1707  01D5  1903               	skipnz
  1708  01D6  29A7               	goto	l86
  1709  01D7  3A03               	xorlw	3	; case 2
  1710  01D8  1903               	skipnz
  1711  01D9  29A1               	goto	l85
  1712  01DA  3A06               	xorlw	6	; case 4
  1713  01DB  1903               	skipnz
  1714  01DC  299B               	goto	l84
  1715  01DD  3A0C               	xorlw	12	; case 8
  1716  01DE  1903               	skipnz
  1717  01DF  2995               	goto	l82
  1718  01E0  3A04               	xorlw	4	; case 12
  1719  01E1  1903               	skipnz
  1720  01E2  29B9               	goto	l89
  1721  01E3  3A15               	xorlw	21	; case 25
  1722  01E4  1903               	skipnz
  1723  01E5  29B3               	goto	l88
  1724  01E6  3A06               	xorlw	6	; case 31
  1725  01E7  1903               	skipnz
  1726  01E8  29BF               	goto	l90
  1727  01E9  3A2D               	xorlw	45	; case 50
  1728  01EA  1903               	skipnz
  1729  01EB  29AD               	goto	l87
  1730  01EC  29C5               	goto	l91
  1731  01ED                     l83:
  1732                           
  1733                           ;./my_lib.h: 64:     OSCCONbits.SCS = 1;
  1734  01ED  140F               	bsf	15,0	;volatile
  1735  01EE                     l92:
  1736  01EE  0008               	return
  1737  01EF                     __end_of_initOsc:
  1738                           
  1739                           	psect	text8
  1740  02A6                     __ptext8:	
  1741 ;; *************** function _hx711_init *****************
  1742 ;; Defined at:
  1743 ;;		line 11 in file "HX711.c"
  1744 ;; Parameters:    Size  Location     Type
  1745 ;;		None
  1746 ;; Auto vars:     Size  Location     Type
  1747 ;;		None
  1748 ;; Return value:  Size  Location     Type
  1749 ;;                  1    wreg      void 
  1750 ;; Registers used:
  1751 ;;		wreg
  1752 ;; Tracked objects:
  1753 ;;		On entry : 0/0
  1754 ;;		On exit  : 0/0
  1755 ;;		Unchanged: 0/0
  1756 ;; Data sizes:     COMMON   BANK0   BANK1   BANK3   BANK2
  1757 ;;      Params:         0       0       0       0       0
  1758 ;;      Locals:         0       0       0       0       0
  1759 ;;      Temps:          3       0       0       0       0
  1760 ;;      Totals:         3       0       0       0       0
  1761 ;;Total ram usage:        3 bytes
  1762 ;; Hardware stack levels used: 1
  1763 ;; Hardware stack levels required when called: 1
  1764 ;; This function calls:
  1765 ;;		Nothing
  1766 ;; This function is called by:
  1767 ;;		_main
  1768 ;; This function uses a non-reentrant model
  1769 ;;
  1770                           
  1771                           
  1772                           ;psect for function _hx711_init
  1773  02A6                     _hx711_init:
  1774  02A6                     l1528:	
  1775                           ;incstack = 0
  1776                           ; Regs used in _hx711_init: [wreg]
  1777                           
  1778  02A6  1683               	bsf	3,5	;RP0=1, select bank1
  1779  02A7  1303               	bcf	3,6	;RP1=0, select bank1
  1780  02A8  1005               	bcf	5,0	;volatile
  1781                           
  1782                           ;HX711.c: 13:    TRISAbits.TRISA1=1;
  1783  02A9  1485               	bsf	5,1	;volatile
  1784                           
  1785                           ;HX711.c: 14:    RA0=0;
  1786  02AA  1283               	bcf	3,5	;RP0=0, select bank0
  1787  02AB  1303               	bcf	3,6	;RP1=0, select bank0
  1788  02AC  1005               	bcf	5,0	;volatile
  1789  02AD                     l1530:
  1790                           
  1791                           ;HX711.c: 15:    _delay((unsigned long)((500)*(4000000/4000.0)));
  1792  02AD  3003               	movlw	3
  1793  02AE  00F5               	movwf	??_hx711_init+2
  1794  02AF  308A               	movlw	138
  1795  02B0  00F4               	movwf	??_hx711_init+1
  1796  02B1  3055               	movlw	85
  1797  02B2  00F3               	movwf	??_hx711_init
  1798  02B3                     u797:
  1799  02B3  0BF3               	decfsz	??_hx711_init,f
  1800  02B4  2AB3               	goto	u797
  1801  02B5  0BF4               	decfsz	??_hx711_init+1,f
  1802  02B6  2AB3               	goto	u797
  1803  02B7  0BF5               	decfsz	??_hx711_init+2,f
  1804  02B8  2AB3               	goto	u797
  1805  02B9  2ABA               	nop2
  1806  02BA                     l284:
  1807  02BA  0008               	return
  1808  02BB                     __end_of_hx711_init:
  1809                           
  1810                           	psect	text9
  1811  0130                     __ptext9:	
  1812 ;; *************** function _isr *****************
  1813 ;; Defined at:
  1814 ;;		line 66 in file "MainSlave1.c"
  1815 ;; Parameters:    Size  Location     Type
  1816 ;;		None
  1817 ;; Auto vars:     Size  Location     Type
  1818 ;;		None
  1819 ;; Return value:  Size  Location     Type
  1820 ;;                  1    wreg      void 
  1821 ;; Registers used:
  1822 ;;		wreg
  1823 ;; Tracked objects:
  1824 ;;		On entry : 0/0
  1825 ;;		On exit  : 0/0
  1826 ;;		Unchanged: 0/0
  1827 ;; Data sizes:     COMMON   BANK0   BANK1   BANK3   BANK2
  1828 ;;      Params:         0       0       0       0       0
  1829 ;;      Locals:         0       0       0       0       0
  1830 ;;      Temps:          3       0       0       0       0
  1831 ;;      Totals:         3       0       0       0       0
  1832 ;;Total ram usage:        3 bytes
  1833 ;; Hardware stack levels used: 1
  1834 ;; This function calls:
  1835 ;;		Nothing
  1836 ;; This function is called by:
  1837 ;;		Interrupt level 1
  1838 ;; This function uses a non-reentrant model
  1839 ;;
  1840                           
  1841                           
  1842                           ;psect for function _isr
  1843  0130                     _isr:
  1844  0130                     i1l1534:
  1845                           
  1846                           ;MainSlave1.c: 70: 
  1847  0130  1283               	bcf	3,5	;RP0=0, select bank0
  1848  0131  1303               	bcf	3,6	;RP1=0, select bank0
  1849  0132  1D8C               	btfss	12,3	;volatile
  1850  0133  2935               	goto	u58_21
  1851  0134  2936               	goto	u58_20
  1852  0135                     u58_21:
  1853  0135  298C               	goto	i1l203
  1854  0136                     u58_20:
  1855  0136                     i1l1536:
  1856                           
  1857                           ;MainSlave1.c: 72:     PORTD = weight;
  1858  0136  1214               	bcf	20,4	;volatile
  1859                           
  1860                           ;MainSlave1.c: 74: 
  1861  0137  1B14               	btfsc	20,6	;volatile
  1862  0138  293A               	goto	u59_21
  1863  0139  293B               	goto	u59_20
  1864  013A                     u59_21:
  1865  013A  293F               	goto	i1l1540
  1866  013B                     u59_20:
  1867  013B                     i1l1538:
  1868  013B  1F94               	btfss	20,7	;volatile
  1869  013C  293E               	goto	u60_21
  1870  013D  293F               	goto	u60_20
  1871  013E                     u60_21:
  1872  013E  2946               	goto	i1l1548
  1873  013F                     u60_20:
  1874  013F                     i1l1540:
  1875                           
  1876                           ;MainSlave1.c: 75:  }
  1877  013F  0813               	movf	19,w	;volatile
  1878  0140  00F0               	movwf	??_isr
  1879  0141  0870               	movf	??_isr,w
  1880  0142  00F9               	movwf	_z
  1881  0143                     i1l1542:
  1882                           
  1883                           ;MainSlave1.c: 76: }
  1884  0143  1314               	bcf	20,6	;volatile
  1885  0144                     i1l1544:
  1886                           
  1887                           ;MainSlave1.c: 77: 
  1888  0144  1394               	bcf	20,7	;volatile
  1889  0145                     i1l1546:
  1890                           
  1891                           ;MainSlave1.c: 78: 
  1892  0145  1614               	bsf	20,4	;volatile
  1893  0146                     i1l1548:
  1894                           
  1895                           ;MainSlave1.c: 81: void setup(void){
  1896  0146  1683               	bsf	3,5	;RP0=1, select bank1
  1897  0147  1303               	bcf	3,6	;RP1=0, select bank1
  1898  0148  1A94               	btfsc	20,5	;volatile
  1899  0149  294B               	goto	u61_21
  1900  014A  294C               	goto	u61_20
  1901  014B                     u61_21:
  1902  014B  2969               	goto	i1l194
  1903  014C                     u61_20:
  1904  014C                     i1l1550:
  1905  014C  1914               	btfsc	20,2	;volatile
  1906  014D  294F               	goto	u62_21
  1907  014E  2950               	goto	u62_20
  1908  014F                     u62_21:
  1909  014F  2969               	goto	i1l194
  1910  0150                     u62_20:
  1911  0150                     i1l1552:
  1912                           
  1913                           ;MainSlave1.c: 83: 
  1914  0150  1283               	bcf	3,5	;RP0=0, select bank0
  1915  0151  1303               	bcf	3,6	;RP1=0, select bank0
  1916  0152  0813               	movf	19,w	;volatile
  1917  0153  00F0               	movwf	??_isr
  1918  0154  0870               	movf	??_isr,w
  1919  0155  00F9               	movwf	_z
  1920  0156                     i1l1554:
  1921                           
  1922                           ;MainSlave1.c: 85: 
  1923  0156  118C               	bcf	12,3	;volatile
  1924  0157                     i1l1556:
  1925                           
  1926                           ;MainSlave1.c: 86:   TRISA = 0b00000010;
  1927  0157  1614               	bsf	20,4	;volatile
  1928  0158                     i1l195:	
  1929                           ;MainSlave1.c: 87:   TRISB = 0b00000000;
  1930                           
  1931  0158  1683               	bsf	3,5	;RP0=1, select bank1
  1932  0159  1303               	bcf	3,6	;RP1=0, select bank1
  1933  015A  1C14               	btfss	20,0	;volatile
  1934  015B  295D               	goto	u63_21
  1935  015C  295E               	goto	u63_20
  1936  015D                     u63_21:
  1937  015D  2958               	goto	i1l195
  1938  015E                     u63_20:
  1939  015E                     i1l1558:
  1940                           
  1941                           ;MainSlave1.c: 88:   TRISC = 0b00000000;
  1942  015E  1283               	bcf	3,5	;RP0=0, select bank0
  1943  015F  1303               	bcf	3,6	;RP1=0, select bank0
  1944  0160  0813               	movf	19,w	;volatile
  1945  0161  00F0               	movwf	??_isr
  1946  0162  0870               	movf	??_isr,w
  1947  0163  00C6               	movwf	_inI2C
  1948                           
  1949                           ;MainSlave1.c: 89:   TRISD = 0x00;
  1950  0164  3053               	movlw	83
  1951  0165  00F0               	movwf	??_isr
  1952  0166                     u80_27:
  1953  0166  0BF0               	decfsz	??_isr,f
  1954  0167  2966               	goto	u80_27
  1955                           
  1956                           ;MainSlave1.c: 91: 
  1957  0168  2989               	goto	i1l198
  1958  0169                     i1l194:	
  1959                           ;MainSlave1.c: 92:   OPTION_REG = 0b11000100;
  1960                           
  1961  0169  1A94               	btfsc	20,5	;volatile
  1962  016A  296C               	goto	u64_21
  1963  016B  296D               	goto	u64_20
  1964  016C                     u64_21:
  1965  016C  2989               	goto	i1l198
  1966  016D                     u64_20:
  1967  016D                     i1l1560:
  1968  016D  1D14               	btfss	20,2	;volatile
  1969  016E  2970               	goto	u65_21
  1970  016F  2971               	goto	u65_20
  1971  0170                     u65_21:
  1972  0170  2989               	goto	i1l198
  1973  0171                     u65_20:
  1974  0171                     i1l1562:
  1975                           
  1976                           ;MainSlave1.c: 93: 
  1977  0171  1283               	bcf	3,5	;RP0=0, select bank0
  1978  0172  1303               	bcf	3,6	;RP1=0, select bank0
  1979  0173  0813               	movf	19,w	;volatile
  1980  0174  00F0               	movwf	??_isr
  1981  0175  0870               	movf	??_isr,w
  1982  0176  00F9               	movwf	_z
  1983  0177                     i1l1564:
  1984                           
  1985                           ;MainSlave1.c: 94: 
  1986  0177  1683               	bsf	3,5	;RP0=1, select bank1
  1987  0178  1303               	bcf	3,6	;RP1=0, select bank1
  1988  0179  1014               	bcf	20,0	;volatile
  1989                           
  1990                           ;MainSlave1.c: 95: 
  1991  017A  0878               	movf	_outI2C,w
  1992  017B  1283               	bcf	3,5	;RP0=0, select bank0
  1993  017C  1303               	bcf	3,6	;RP1=0, select bank0
  1994  017D  0093               	movwf	19	;volatile
  1995  017E                     i1l1566:
  1996                           
  1997                           ;MainSlave1.c: 96: 
  1998  017E  1614               	bsf	20,4	;volatile
  1999                           
  2000                           ;MainSlave1.c: 97:   initOsc(4);
  2001  017F  3053               	movlw	83
  2002  0180  00F0               	movwf	??_isr
  2003  0181                     u81_27:
  2004  0181  0BF0               	decfsz	??_isr,f
  2005  0182  2981               	goto	u81_27
  2006  0183                     i1l200:	
  2007                           ;MainSlave1.c: 98: 
  2008                           
  2009  0183  1683               	bsf	3,5	;RP0=1, select bank1
  2010  0184  1303               	bcf	3,6	;RP1=0, select bank1
  2011  0185  1814               	btfsc	20,0	;volatile
  2012  0186  2988               	goto	u66_21
  2013  0187  2989               	goto	u66_20
  2014  0188                     u66_21:
  2015  0188  2983               	goto	i1l200
  2016  0189                     u66_20:
  2017  0189                     i1l198:
  2018                           
  2019                           ;MainSlave1.c: 101: 
  2020  0189  1283               	bcf	3,5	;RP0=0, select bank0
  2021  018A  1303               	bcf	3,6	;RP1=0, select bank0
  2022  018B  118C               	bcf	12,3	;volatile
  2023  018C                     i1l203:
  2024  018C  0872               	movf	??_isr+2,w
  2025  018D  008A               	movwf	10
  2026  018E  0E71               	swapf	??_isr+1,w
  2027  018F  0083               	movwf	3
  2028  0190  0EFE               	swapf	btemp,f
  2029  0191  0E7E               	swapf	btemp,w
  2030  0192  0009               	retfie
  2031  0193                     __end_of_isr:
  2032  007E                     btemp	set	126	;btemp
  2033  007E                     wtemp0	set	126
  2034                           
  2035                           	psect	intentry
  2036  0004                     __pintentry:	
  2037                           ;incstack = 0
  2038                           ; Regs used in _isr: [wreg]
  2039                           
  2040  0004                     interrupt_function:
  2041  007E                     saved_w	set	btemp
  2042  0004  00FE               	movwf	btemp
  2043  0005  0E03               	swapf	3,w
  2044  0006  00F1               	movwf	??_isr+1
  2045  0007  080A               	movf	10,w
  2046  0008  00F2               	movwf	??_isr+2
  2047  0009  120A  118A  2930   	ljmp	_isr
  2048                           
  2049                           	psect	config
  2050                           
  2051                           ;Config register CONFIG1 @ 0x2007
  2052                           ;	Oscillator Selection bits
  2053                           ;	FOSC = INTRC_NOCLKOUT, INTOSCIO oscillator: I/O function on RA6/OSC2/CLKOUT pin, I/O f
      +                          unction on RA7/OSC1/CLKIN
  2054                           ;	Watchdog Timer Enable bit
  2055                           ;	WDTE = OFF, WDT disabled and can be enabled by SWDTEN bit of the WDTCON register
  2056                           ;	Power-up Timer Enable bit
  2057                           ;	PWRTE = OFF, PWRT disabled
  2058                           ;	RE3/MCLR pin function select bit
  2059                           ;	MCLRE = OFF, RE3/MCLR pin function is digital input, MCLR internally tied to VDD
  2060                           ;	Code Protection bit
  2061                           ;	CP = OFF, Program memory code protection is disabled
  2062                           ;	Data Code Protection bit
  2063                           ;	CPD = OFF, Data memory code protection is disabled
  2064                           ;	Brown Out Reset Selection bits
  2065                           ;	BOREN = OFF, BOR disabled
  2066                           ;	Internal External Switchover bit
  2067                           ;	IESO = OFF, Internal/External Switchover mode is disabled
  2068                           ;	Fail-Safe Clock Monitor Enabled bit
  2069                           ;	FCMEN = OFF, Fail-Safe Clock Monitor is disabled
  2070                           ;	Low Voltage Programming Enable bit
  2071                           ;	LVP = OFF, RB3 pin has digital I/O, HV on MCLR must be used for programming
  2072                           ;	In-Circuit Debugger Mode bit
  2073                           ;	DEBUG = 0x1, unprogrammed default
  2074  2007                     	org	8199
  2075  2007  20D4               	dw	8404
  2076                           
  2077                           ;Config register CONFIG2 @ 0x2008
  2078                           ;	Brown-out Reset Selection bit
  2079                           ;	BOR4V = BOR40V, Brown-out Reset set to 4.0V
  2080                           ;	Flash Program Memory Self Write Enable bits
  2081                           ;	WRT = OFF, Write protection off
  2082  2008                     	org	8200
  2083  2008  3FFF               	dw	16383

Data Sizes:
    Strings     0
    Constant    0
    Data        0
    BSS         11
    Persistent  0
    Stack       0

Auto Spaces:
    Space          Size  Autos    Used
    COMMON           14      8      11
    BANK0            80     32      40
    BANK1            80      0       0
    BANK3            96      0       0
    BANK2            96      0       0

Pointer List with Targets:

    None.

Critical Paths under _main in COMMON

    _hx711_promedio->_hx711_lectura
    _hx711_lectura->_hx711_pulso
    _setup->_initOsc

Critical Paths under _isr in COMMON

    None.

Critical Paths under _main in BANK0

    _main->_tarar
    _tarar->_hx711_promedio
    _hx711_promedio->___aldiv
    _hx711_promedio->_hx711_lectura

Critical Paths under _isr in BANK0

    None.

Critical Paths under _main in BANK1

    None.

Critical Paths under _isr in BANK1

    None.

Critical Paths under _main in BANK3

    None.

Critical Paths under _isr in BANK3

    None.

Critical Paths under _main in BANK2

    None.

Critical Paths under _isr in BANK2

    None.

Call Graph Tables:

 ---------------------------------------------------------------------------------
 (Depth) Function   	        Calls       Base Space   Used Autos Params    Refs
 ---------------------------------------------------------------------------------
 (0) _main                                                 1     1      0    1313
                                             31 BANK0      1     1      0
                         _hx711_init
                              _setup
                              _tarar
 ---------------------------------------------------------------------------------
 (1) _tarar                                                3     2      1    1291
                                             28 BANK0      3     2      1
                     _hx711_promedio
 ---------------------------------------------------------------------------------
 (2) _hx711_promedio                                      14    10      4    1139
                                             14 BANK0     14    10      4
                            ___aldiv
                      _hx711_lectura
 ---------------------------------------------------------------------------------
 (3) _hx711_lectura                                       18    14      4     226
                                              4 COMMON     4     0      4
                                              0 BANK0     14    14      0
                        _hx711_pulso
 ---------------------------------------------------------------------------------
 (4) _hx711_pulso                                          1     1      0      23
                                              3 COMMON     1     1      0
 ---------------------------------------------------------------------------------
 (3) ___aldiv                                             15     7      8     625
                                              3 COMMON     1     1      0
                                              0 BANK0     14     6      8
 ---------------------------------------------------------------------------------
 (1) _setup                                                0     0      0      22
                            _initOsc
 ---------------------------------------------------------------------------------
 (2) _initOsc                                              3     3      0      22
                                              3 COMMON     3     3      0
 ---------------------------------------------------------------------------------
 (1) _hx711_init                                           3     3      0       0
                                              3 COMMON     3     3      0
 ---------------------------------------------------------------------------------
 Estimated maximum stack depth 4
 ---------------------------------------------------------------------------------
 (Depth) Function   	        Calls       Base Space   Used Autos Params    Refs
 ---------------------------------------------------------------------------------
 (5) _isr                                                  3     3      0       0
                                              0 COMMON     3     3      0
 ---------------------------------------------------------------------------------
 Estimated maximum stack depth 5
 ---------------------------------------------------------------------------------

 Call Graph Graphs:

 _main (ROOT)
   _hx711_init
   _setup
     _initOsc
   _tarar
     _hx711_promedio
       ___aldiv
       _hx711_lectura
         _hx711_pulso

 _isr (ROOT)

 Address spaces:
Name               Size   Autos  Total    Cost      Usage
BITCOMMON            E      0       0       0        0.0%
EEDATA             100      0       0       0        0.0%
NULL                 0      0       0       0        0.0%
CODE                 0      0       0       0        0.0%
COMMON               E      8       B       1       78.6%
BITSFR0              0      0       0       1        0.0%
SFR0                 0      0       0       1        0.0%
BITSFR1              0      0       0       2        0.0%
SFR1                 0      0       0       2        0.0%
STACK                0      0       0       2        0.0%
ABS                  0      0      33       3        0.0%
BITBANK0            50      0       0       4        0.0%
BITSFR3              0      0       0       4        0.0%
SFR3                 0      0       0       4        0.0%
BANK0               50     20      28       5       50.0%
BITSFR2              0      0       0       5        0.0%
SFR2                 0      0       0       5        0.0%
BITBANK1            50      0       0       6        0.0%
BANK1               50      0       0       7        0.0%
BITBANK3            60      0       0       8        0.0%
BANK3               60      0       0       9        0.0%
BITBANK2            60      0       0      10        0.0%
BANK2               60      0       0      11        0.0%
DATA                 0      0      33      12        0.0%


Microchip Technology PIC Macro Assembler V2.32 build 20210201212658 
Symbol Table                                                                                   Mon Aug 30 21:37:20 2021

                      _z 0079           ?_hx711_lectura 0074              _SSPSTATbits 0094  
                     _BF 04A0                       l90 01BF                       l82 0195  
                     l91 01C5                       l83 01ED                       l92 01EE  
                     l84 019B                       l85 01A1                       l86 01A7  
                     l87 01AD                       l88 01B3                       l89 01B9  
                    l214 026B                      l312 02A5                      l309 012F  
                    l290 01F9                      l284 02BA                      l463 0034  
                    l287 02C8                      l295 0241                      l473 00BC  
                    _GIE 005F                      _RA0 0028                      _RA1 0029  
                    u430 01FD                      u431 01FC                      u440 020B  
                    u441 020A                      u450 0224                      u460 022E  
                    u461 022F                      u710 006B                      u462 0234  
                    u711 006A                      u463 0235                      u455 021F  
                    u705 005C                      u730 0086                      u731 0085  
                    u725 006D                      u750 00A4                      u670 0027  
                    u751 00A3                      u735 0082                      u671 0026  
                    u760 00A9                      u680 0038                      u761 00A8  
                    u745 0096                      u681 0037                      u690 0057  
                    u770 010B                      u691 0056                      u771 010A  
                    u787 00FB                      u797 02B3                      _isr 0130  
                   l1500 0250                     l1510 025D                     l1502 0251  
                   l1520 0264                     l1512 025E                     l1504 0252  
                   l1600 0023                     l1530 02AD                     l1522 0265  
                   l1514 025F                     l1506 0254                     l1610 004F  
                   l1602 0027                     l1370 02C5                     l1524 0268  
                   l1516 0260                     l1508 025A                     l1620 0074  
                   l1612 0057                     l1604 0038                     l1372 02C6  
                   l1380 01FD                     l1470 01CB                     l1526 0269  
                   l1518 0261                     l1622 0086                     l1614 005A  
                   l1630 00A4                     l1606 0043                     l1374 02C7  
                   l1366 02BB                     l1528 02A6                     l1632 00A9  
                   l1624 0094                     l1616 0067                     l1608 0047  
                   l1368 02BF                     l1384 0201                     l1640 00C8  
                   l1466 0194                     l1634 00B4                     l1626 0095  
                   l1618 006B                     l1386 020B                     l1378 01EF  
                   l1650 010B                     l1642 00CA                     l1492 0247  
                   l1628 009E                     l1644 00F5                     l1660 0276  
                   l1494 024A                     l1646 00FF                     l1638 00C0  
                   l1654 0291                     l1662 0282                     l1496 024E  
                   l1648 0105                     l1664 0286                     l1656 026C  
                   l1498 024F                     l1658 0271                     l1686 01D3  
                   l1598 0020                     ?_isr 0070                     _IOCB 0096  
        ?_hx711_promedio 002E                     _PIE1 008C                     _PIE2 008D  
                   _PEIE 005E                     _PIR1 000C                     _PIR2 000D  
                   _WPUB 0095       hx711_promedio@cont 003B       hx711_promedio@prom 0037  
                   _cont 0047                     _main 026C                     btemp 007E  
                   start 000C                    ??_isr 0070          __end_of___aldiv 00BD  
                  ?_main 0070                    _ANSEL 0188                    i1l200 0183  
                  i1l203 018C                    i1l194 0169                    i1l195 0158  
                  i1l198 0189                    _SPBRG 0099                    _PORTA 0005  
                  _PORTB 0006                    _PORTC 0007                    _PORTD 0008  
                  _PORTE 0009                    u60_20 013F                    u60_21 013E  
                  u61_20 014C                    u61_21 014B                    u62_20 0150  
                  u62_21 014F                    u63_20 015E                    u63_21 015D  
                  u64_20 016D                    u64_21 016C                    u80_27 0166  
                  u65_20 0171                    u65_21 0170                    _TRISA 0085  
                  _TRISB 0086                    _TRISC 0087                    _TRISD 0088  
                  u81_27 0181                    _SSPIE 0463                    _TRISE 0089  
                  u66_20 0189                    u58_20 0136                    _SSPIF 0063  
                  u66_21 0188                    u58_21 0135                    u59_20 013B  
                  u59_21 013A      hx711_promedio@veces 0036                    _inI2C 0046  
        __end_of_initOsc 01EF                    _tarar 028E                    _setup 0247  
                  pclath 000A                    status 0003                    wtemp0 007E  
        __initialization 000F          ??_hx711_lectura 0020             __end_of_main 028E  
  hx711_lectura@ganancia 0029                   ??_main 003F                   ?_tarar 003C  
                 ?_setup 0070                   _ANSELH 0189                   i1l1540 013F  
                 i1l1550 014C                   i1l1542 0143                   i1l1534 0130  
                 i1l1560 016D                   i1l1552 0150                   i1l1544 0144  
                 i1l1536 0136                   i1l1562 0171                   i1l1554 0156  
                 i1l1546 0145                   i1l1538 013B                   i1l1564 0177  
                 i1l1556 0157                   i1l1548 0146                   i1l1566 017E  
                 i1l1558 015E                   _INTCON 000B              initOsc@frec 0075  
                 _SPBRGH 009A                   _SSPADD 0093                   _TRISC3 043B  
                 _TRISC4 043C                   _SSPBUF 0013                   _SSPCON 0014  
              ??___aldiv 0073                   _offset 0040                   _outI2C 0078  
                 _weight 0044                ??_initOsc 0073                   saved_w 007E  
             _hx711_init 02A6  __end_of__initialization 001C           __pcstackCOMMON 0070  
          __end_of_tarar 02A6            __end_of_setup 026C            ??_hx711_pulso 0073  
       ??_hx711_promedio 0032                  ??_tarar 003D                  ??_setup 0076  
             __pbssBANK0 0040               __pmaintext 026C               __pintentry 0004  
    __end_of_hx711_pulso 02C9                  _SSPCON2 0091                  _SSPSTAT 0094  
            ?_hx711_init 0070           hx711_pulso@lec 0073                  ___aldiv 0020  
                __ptext1 028E                  __ptext2 00BD                  __ptext3 01EF  
                __ptext4 02BB                  __ptext5 0020                  __ptext6 0247  
                __ptext7 0193                  __ptext8 02A6                  __ptext9 0130  
                _flagint 007A                  _initOsc 0193             __size_of_isr 0063  
       ___aldiv@dividend 0024                  _varPot0 0045     end_of_initialization 001C  
          tarar@ganancia 003C                _RCSTAbits 0018         ___aldiv@quotient 002A  
  __end_of_hx711_lectura 0247      __size_of_hx711_init 0015              _hx711_pulso 02BB  
              _TRISAbits 0085                _TRISCbits 0087                _TXSTAbits 0098  
            _BAUDCTLbits 0187      start_initialization 000F              __end_of_isr 0193  
            __pbssCOMMON 0078                ___latbits 0002            __pcstackBANK0 0020  
      hx711_lectura@dato 002A        hx711_lectura@cont 0028             ??_hx711_init 0073  
               ?___aldiv 0020               tarar@veces 003E       __end_of_hx711_init 02BB  
               ?_initOsc 0070           __size_of_tarar 0018           __size_of_setup 0025  
        ___aldiv@divisor 0020        interrupt_function 0004          ___aldiv@counter 0028  
__size_of_hx711_promedio 0073                 _PIE1bits 008C                 _PIR1bits 000C  
             _ADCON0bits 001F               _ADCON1bits 009F             ?_hx711_pulso 0070  
 hx711_promedio@ganancia 002E         __size_of___aldiv 009D         __size_of_initOsc 005C  
 __size_of_hx711_lectura 0058            __size_of_main 0022               _INTCONbits 000B  
               intlevel1 0000           _hx711_promedio 00BD               _OSCCONbits 008F  
          _hx711_lectura 01EF               _OPTION_REG 0081     __size_of_hx711_pulso 000E  
           ___aldiv@sign 0029              _SSPCON2bits 0091   __end_of_hx711_promedio 0130  
             _SSPCONbits 0014  
