

Microchip MPLAB XC8 Assembler V2.32 build 20210201212658 
                                                                                               Wed Aug 18 16:10:07 2021

Microchip MPLAB XC8 C Compiler v2.32 (Free license) build 20210201212658 Og1 
     1                           	processor	16F887
     2                           	pagewidth 120
     3                           	opt	flic
     4                           	psect	cinit,global,class=CODE,merge=1,delta=2
     5                           	psect	bssCOMMON,global,class=COMMON,space=1,delta=1,noexec
     6                           	psect	bssBANK0,global,class=BANK0,space=1,delta=1,noexec
     7                           	psect	cstackCOMMON,global,class=COMMON,space=1,delta=1,noexec
     8                           	psect	cstackBANK0,global,class=BANK0,space=1,delta=1,noexec
     9                           	psect	maintext,global,class=CODE,split=1,delta=2
    10                           	psect	text1,local,class=CODE,merge=1,delta=2
    11                           	psect	text2,local,class=CODE,merge=1,delta=2
    12                           	psect	text3,local,class=CODE,merge=1,delta=2
    13                           	psect	text4,local,class=CODE,merge=1,delta=2
    14                           	psect	text5,local,class=CODE,merge=1,delta=2
    15                           	psect	text6,local,class=CODE,merge=1,delta=2,group=1
    16                           	psect	text7,local,class=CODE,merge=1,delta=2,group=1
    17                           	psect	text8,local,class=CODE,merge=1,delta=2,group=1
    18                           	psect	text9,local,class=CODE,merge=1,delta=2,group=1
    19                           	psect	text10,local,class=CODE,merge=1,delta=2,group=1
    20                           	psect	text11,local,class=CODE,merge=1,delta=2,group=1
    21                           	psect	text12,local,class=CODE,merge=1,delta=2
    22                           	psect	intentry,global,class=CODE,delta=2
    23                           	psect	text13,local,class=CODE,merge=1,delta=2,group=1
    24                           	psect	config,global,abs,ovrld,class=CONFIG,space=4,delta=2,noexec
    25                           	dabs	1,0x7E,2
    26  0000                     
    27                           ; Version 2.20
    28                           ; Generated 12/02/2020 GMT
    29                           ; 
    30                           ; Copyright © 2020, Microchip Technology Inc. and its subsidiaries ("Microchip")
    31                           ; All rights reserved.
    32                           ; 
    33                           ; This software is developed by Microchip Technology Inc. and its subsidiaries ("Microch
      +                          ip").
    34                           ; 
    35                           ; Redistribution and use in source and binary forms, with or without modification, are
    36                           ; permitted provided that the following conditions are met:
    37                           ; 
    38                           ;     1. Redistributions of source code must retain the above copyright notice, this lis
      +                          t of
    39                           ;        conditions and the following disclaimer.
    40                           ; 
    41                           ;     2. Redistributions in binary form must reproduce the above copyright notice, this 
      +                          list
    42                           ;        of conditions and the following disclaimer in the documentation and/or other
    43                           ;        materials provided with the distribution.
    44                           ; 
    45                           ;     3. Microchip's name may not be used to endorse or promote products derived from th
      +                          is
    46                           ;        software without specific prior written permission.
    47                           ; 
    48                           ; THIS SOFTWARE IS PROVIDED BY MICROCHIP "AS IS" AND ANY EXPRESS OR IMPLIED WARRANTIES,
    49                           ; INCLUDING, BUT NOT LIMITED TO, THE IMPLIED WARRANTIES OF MERCHANTABILITY AND FITNESS F
      +                          OR
    50                           ; PURPOSE ARE DISCLAIMED.  IN NO EVENT SHALL MICROCHIP BE LIABLE FOR ANY DIRECT, INDIREC
      +                          T,
    51                           ; INCIDENTAL, SPECIAL, EXEMPLARY, OR CONSEQUENTIAL DAMAGES (INCLUDING BUT NOT LIMITED TO
    52                           ; PROCUREMENT OF SUBSTITUTE GOODS OR SERVICES; LOSS OF USE, DATA OR PROFITS; OR BUSINESS
    53                           ; INTERRUPTION) HOWSOEVER CAUSED AND ON ANY THEORY OF LIABILITY, WHETHER IN CONTRACT, ST
      +                          RICT
    54                           ; LIABILITY, OR TORT (INCLUDING NEGLIGENCE OR OTHERWISE) ARISING IN ANY WAY OUT OF THE U
      +                          SE OF
    55                           ; THIS SOFTWARE, EVEN IF ADVISED OF THE POSSIBILITY OF SUCH DAMAGE.
    56                           ; 
    57                           ; 
    58                           ; Code-generator required, PIC16F887 Definitions
    59                           ; 
    60                           ; SFR Addresses
    61  0000                     	;# 
    62  0001                     	;# 
    63  0002                     	;# 
    64  0003                     	;# 
    65  0004                     	;# 
    66  0005                     	;# 
    67  0006                     	;# 
    68  0007                     	;# 
    69  0008                     	;# 
    70  0009                     	;# 
    71  000A                     	;# 
    72  000B                     	;# 
    73  000C                     	;# 
    74  000D                     	;# 
    75  000E                     	;# 
    76  000E                     	;# 
    77  000F                     	;# 
    78  0010                     	;# 
    79  0011                     	;# 
    80  0012                     	;# 
    81  0013                     	;# 
    82  0014                     	;# 
    83  0015                     	;# 
    84  0015                     	;# 
    85  0016                     	;# 
    86  0017                     	;# 
    87  0018                     	;# 
    88  0019                     	;# 
    89  001A                     	;# 
    90  001B                     	;# 
    91  001B                     	;# 
    92  001C                     	;# 
    93  001D                     	;# 
    94  001E                     	;# 
    95  001F                     	;# 
    96  0081                     	;# 
    97  0085                     	;# 
    98  0086                     	;# 
    99  0087                     	;# 
   100  0088                     	;# 
   101  0089                     	;# 
   102  008C                     	;# 
   103  008D                     	;# 
   104  008E                     	;# 
   105  008F                     	;# 
   106  0090                     	;# 
   107  0091                     	;# 
   108  0092                     	;# 
   109  0093                     	;# 
   110  0093                     	;# 
   111  0093                     	;# 
   112  0094                     	;# 
   113  0095                     	;# 
   114  0096                     	;# 
   115  0097                     	;# 
   116  0098                     	;# 
   117  0099                     	;# 
   118  009A                     	;# 
   119  009B                     	;# 
   120  009C                     	;# 
   121  009D                     	;# 
   122  009E                     	;# 
   123  009F                     	;# 
   124  0105                     	;# 
   125  0107                     	;# 
   126  0108                     	;# 
   127  0109                     	;# 
   128  010C                     	;# 
   129  010C                     	;# 
   130  010D                     	;# 
   131  010E                     	;# 
   132  010F                     	;# 
   133  0185                     	;# 
   134  0187                     	;# 
   135  0188                     	;# 
   136  0189                     	;# 
   137  018C                     	;# 
   138  018D                     	;# 
   139  0000                     	;# 
   140  0001                     	;# 
   141  0002                     	;# 
   142  0003                     	;# 
   143  0004                     	;# 
   144  0005                     	;# 
   145  0006                     	;# 
   146  0007                     	;# 
   147  0008                     	;# 
   148  0009                     	;# 
   149  000A                     	;# 
   150  000B                     	;# 
   151  000C                     	;# 
   152  000D                     	;# 
   153  000E                     	;# 
   154  000E                     	;# 
   155  000F                     	;# 
   156  0010                     	;# 
   157  0011                     	;# 
   158  0012                     	;# 
   159  0013                     	;# 
   160  0014                     	;# 
   161  0015                     	;# 
   162  0015                     	;# 
   163  0016                     	;# 
   164  0017                     	;# 
   165  0018                     	;# 
   166  0019                     	;# 
   167  001A                     	;# 
   168  001B                     	;# 
   169  001B                     	;# 
   170  001C                     	;# 
   171  001D                     	;# 
   172  001E                     	;# 
   173  001F                     	;# 
   174  0081                     	;# 
   175  0085                     	;# 
   176  0086                     	;# 
   177  0087                     	;# 
   178  0088                     	;# 
   179  0089                     	;# 
   180  008C                     	;# 
   181  008D                     	;# 
   182  008E                     	;# 
   183  008F                     	;# 
   184  0090                     	;# 
   185  0091                     	;# 
   186  0092                     	;# 
   187  0093                     	;# 
   188  0093                     	;# 
   189  0093                     	;# 
   190  0094                     	;# 
   191  0095                     	;# 
   192  0096                     	;# 
   193  0097                     	;# 
   194  0098                     	;# 
   195  0099                     	;# 
   196  009A                     	;# 
   197  009B                     	;# 
   198  009C                     	;# 
   199  009D                     	;# 
   200  009E                     	;# 
   201  009F                     	;# 
   202  0105                     	;# 
   203  0107                     	;# 
   204  0108                     	;# 
   205  0109                     	;# 
   206  010C                     	;# 
   207  010C                     	;# 
   208  010D                     	;# 
   209  010E                     	;# 
   210  010F                     	;# 
   211  0185                     	;# 
   212  0187                     	;# 
   213  0188                     	;# 
   214  0189                     	;# 
   215  018C                     	;# 
   216  018D                     	;# 
   217  000B                     _INTCON	set	11
   218  000D                     _PIR2	set	13
   219  000C                     _PIR1	set	12
   220  0009                     _PORTE	set	9
   221  0007                     _PORTC	set	7
   222  0006                     _PORTB	set	6
   223  0005                     _PORTA	set	5
   224  0008                     _PORTD	set	8
   225  0019                     _TXREG	set	25
   226  001A                     _RCREG	set	26
   227  000C                     _PIR1bits	set	12
   228  000B                     _INTCONbits	set	11
   229  0018                     _RCSTAbits	set	24
   230  001F                     _ADCON0bits	set	31
   231  0065                     _RCIF	set	101
   232  0064                     _TXIF	set	100
   233  0031                     _RB1	set	49
   234  0030                     _RB0	set	48
   235  0058                     _RBIF	set	88
   236  008D                     _PIE2	set	141
   237  008C                     _PIE1	set	140
   238  0089                     _TRISE	set	137
   239  0088                     _TRISD	set	136
   240  0087                     _TRISC	set	135
   241  0081                     _OPTION_REG	set	129
   242  0096                     _IOCB	set	150
   243  0095                     _WPUB	set	149
   244  0086                     _TRISB	set	134
   245  009A                     _SPBRGH	set	154
   246  0099                     _SPBRG	set	153
   247  0098                     _TXSTAbits	set	152
   248  008C                     _PIE1bits	set	140
   249  009F                     _ADCON1bits	set	159
   250  0085                     _TRISA	set	133
   251  008F                     _OSCCONbits	set	143
   252  0187                     _BAUDCTLbits	set	391
   253  0189                     _ANSELH	set	393
   254  0188                     _ANSEL	set	392
   255                           
   256                           	psect	cinit
   257  000F                     start_initialization:	
   258                           ; #config settings
   259                           
   260  000F                     __initialization:
   261                           
   262                           ; Clear objects allocated to COMMON
   263  000F  01F9               	clrf	__pbssCOMMON& (0+127)
   264  0010  01FA               	clrf	(__pbssCOMMON+1)& (0+127)
   265  0011  01FB               	clrf	(__pbssCOMMON+2)& (0+127)
   266  0012  01FC               	clrf	(__pbssCOMMON+3)& (0+127)
   267  0013  01FD               	clrf	(__pbssCOMMON+4)& (0+127)
   268                           
   269                           ; Clear objects allocated to BANK0
   270  0014  1283               	bcf	3,5	;RP0=0, select bank0
   271  0015  1303               	bcf	3,6	;RP1=0, select bank0
   272  0016  01CC               	clrf	__pbssBANK0& (0+127)
   273  0017  01CD               	clrf	(__pbssBANK0+1)& (0+127)
   274  0018  01CE               	clrf	(__pbssBANK0+2)& (0+127)
   275  0019  01CF               	clrf	(__pbssBANK0+3)& (0+127)
   276  001A  01D0               	clrf	(__pbssBANK0+4)& (0+127)
   277  001B  01D1               	clrf	(__pbssBANK0+5)& (0+127)
   278  001C  01D2               	clrf	(__pbssBANK0+6)& (0+127)
   279  001D  01D3               	clrf	(__pbssBANK0+7)& (0+127)
   280  001E  01D4               	clrf	(__pbssBANK0+8)& (0+127)
   281  001F                     end_of_initialization:	
   282                           ;End of C runtime variable initialization code
   283                           
   284  001F                     __end_of__initialization:
   285  001F  0183               	clrf	3
   286  0020  120A  158A  2F45   	ljmp	_main	;jump to C main() function
   287                           
   288                           	psect	bssCOMMON
   289  0079                     __pbssCOMMON:
   290  0079                     _centenas:
   291  0079                     	ds	1
   292  007A                     _decenas:
   293  007A                     	ds	1
   294  007B                     _decA:
   295  007B                     	ds	1
   296  007C                     _centA:
   297  007C                     	ds	1
   298  007D                     _RXREC:
   299  007D                     	ds	1
   300                           
   301                           	psect	bssBANK0
   302  004C                     __pbssBANK0:
   303  004C                     _valor:
   304  004C                     	ds	4
   305  0050                     _unidades:
   306  0050                     	ds	1
   307  0051                     _unA:
   308  0051                     	ds	1
   309  0052                     _contador:
   310  0052                     	ds	1
   311  0053                     _var1:
   312  0053                     	ds	1
   313  0054                     _var0:
   314  0054                     	ds	1
   315                           
   316                           	psect	cstackCOMMON
   317  0070                     __pcstackCOMMON:
   318  0070                     ?_setup:
   319  0070                     ?_decimal:	
   320                           ; 1 bytes @ 0x0
   321                           
   322  0070                     ?_initOsc:	
   323                           ; 1 bytes @ 0x0
   324                           
   325  0070                     ?_pushPORTB:	
   326                           ; 1 bytes @ 0x0
   327                           
   328  0070                     ?_isr:	
   329                           ; 1 bytes @ 0x0
   330                           
   331  0070                     ?_main:	
   332                           ; 1 bytes @ 0x0
   333                           
   334  0070                     ?___bmul:	
   335                           ; 1 bytes @ 0x0
   336                           
   337  0070                     initEUSART@tx:	
   338                           ; 1 bytes @ 0x0
   339                           
   340  0070                     ___bmul@multiplicand:	
   341                           ; 1 bytes @ 0x0
   342                           
   343                           
   344                           ; 1 bytes @ 0x0
   345  0070                     	ds	1
   346  0071                     ??___bmul:
   347                           
   348                           ; 1 bytes @ 0x1
   349  0071                     	ds	1
   350  0072                     ___bmul@product:
   351                           
   352                           ; 1 bytes @ 0x2
   353  0072                     	ds	1
   354  0073                     ___bmul@multiplier:
   355                           
   356                           ; 1 bytes @ 0x3
   357  0073                     	ds	1
   358  0074                     ??_isr:
   359                           
   360                           ; 1 bytes @ 0x4
   361  0074                     	ds	5
   362                           
   363                           	psect	cstackBANK0
   364  0020                     __pcstackBANK0:
   365  0020                     ??_initOsc:
   366  0020                     ?_initEUSART:	
   367                           ; 1 bytes @ 0x0
   368                           
   369  0020                     ??_pushPORTB:	
   370                           ; 1 bytes @ 0x0
   371                           
   372  0020                     ?___wmul:	
   373                           ; 1 bytes @ 0x0
   374                           
   375  0020                     ?___fladd:	
   376                           ; 2 bytes @ 0x0
   377                           
   378  0020                     ?___fldiv:	
   379                           ; 4 bytes @ 0x0
   380                           
   381  0020                     initEUSART@rx:	
   382                           ; 4 bytes @ 0x0
   383                           
   384  0020                     pushPORTB@val:	
   385                           ; 1 bytes @ 0x0
   386                           
   387  0020                     ___wmul@multiplier:	
   388                           ; 1 bytes @ 0x0
   389                           
   390  0020                     ___fladd@b:	
   391                           ; 2 bytes @ 0x0
   392                           
   393  0020                     ___fldiv@a:	
   394                           ; 4 bytes @ 0x0
   395                           
   396                           
   397                           ; 4 bytes @ 0x0
   398  0020                     	ds	1
   399  0021                     ??_initEUSART:
   400                           
   401                           ; 1 bytes @ 0x1
   402  0021                     	ds	1
   403  0022                     initOsc@frec:
   404  0022                     ___wmul@multiplicand:	
   405                           ; 1 bytes @ 0x2
   406                           
   407                           
   408                           ; 2 bytes @ 0x2
   409  0022                     	ds	1
   410  0023                     ??_setup:
   411                           
   412                           ; 1 bytes @ 0x3
   413  0023                     	ds	1
   414  0024                     ??___wmul:
   415  0024                     ___wmul@product:	
   416                           ; 1 bytes @ 0x4
   417                           
   418  0024                     ___fladd@a:	
   419                           ; 2 bytes @ 0x4
   420                           
   421  0024                     ___fldiv@b:	
   422                           ; 4 bytes @ 0x4
   423                           
   424                           
   425                           ; 4 bytes @ 0x4
   426  0024                     	ds	2
   427  0026                     ?___xxtofl:
   428  0026                     ___xxtofl@val:	
   429                           ; 4 bytes @ 0x6
   430                           
   431                           
   432                           ; 4 bytes @ 0x6
   433  0026                     	ds	2
   434  0028                     ??___fladd:
   435  0028                     ??___fldiv:	
   436                           ; 1 bytes @ 0x8
   437                           
   438                           
   439                           ; 1 bytes @ 0x8
   440  0028                     	ds	2
   441  002A                     ??___xxtofl:
   442                           
   443                           ; 1 bytes @ 0xA
   444  002A                     	ds	3
   445  002D                     ___fldiv@rem:
   446                           
   447                           ; 4 bytes @ 0xD
   448  002D                     	ds	1
   449  002E                     ___xxtofl@sign:
   450                           
   451                           ; 1 bytes @ 0xE
   452  002E                     	ds	1
   453  002F                     ___xxtofl@exp:
   454                           
   455                           ; 1 bytes @ 0xF
   456  002F                     	ds	1
   457  0030                     ___fladd@signs:
   458  0030                     ___xxtofl@arg:	
   459                           ; 1 bytes @ 0x10
   460                           
   461                           
   462                           ; 4 bytes @ 0x10
   463  0030                     	ds	1
   464  0031                     ___fladd@aexp:
   465  0031                     ___fldiv@sign:	
   466                           ; 1 bytes @ 0x11
   467                           
   468                           
   469                           ; 1 bytes @ 0x11
   470  0031                     	ds	1
   471  0032                     ___fladd@bexp:
   472  0032                     ___fldiv@new_exp:	
   473                           ; 1 bytes @ 0x12
   474                           
   475                           
   476                           ; 2 bytes @ 0x12
   477  0032                     	ds	1
   478  0033                     ___fladd@grs:
   479                           
   480                           ; 1 bytes @ 0x13
   481  0033                     	ds	1
   482  0034                     ?___flsub:
   483  0034                     ___flsub@a:	
   484                           ; 4 bytes @ 0x14
   485                           
   486  0034                     ___fldiv@grs:	
   487                           ; 4 bytes @ 0x14
   488                           
   489                           
   490                           ; 4 bytes @ 0x14
   491  0034                     	ds	4
   492  0038                     ___fldiv@bexp:
   493  0038                     ___flsub@b:	
   494                           ; 1 bytes @ 0x18
   495                           
   496                           
   497                           ; 4 bytes @ 0x18
   498  0038                     	ds	1
   499  0039                     ___fldiv@aexp:
   500                           
   501                           ; 1 bytes @ 0x19
   502  0039                     	ds	1
   503  003A                     ?___fltol:
   504  003A                     ___fltol@f1:	
   505                           ; 4 bytes @ 0x1A
   506                           
   507                           
   508                           ; 4 bytes @ 0x1A
   509  003A                     	ds	2
   510  003C                     ??___flsub:
   511                           
   512                           ; 1 bytes @ 0x1C
   513  003C                     	ds	2
   514  003E                     ??___fltol:
   515                           
   516                           ; 1 bytes @ 0x1E
   517  003E                     	ds	5
   518  0043                     ___fltol@sign1:
   519                           
   520                           ; 1 bytes @ 0x23
   521  0043                     	ds	1
   522  0044                     ___fltol@exp1:
   523                           
   524                           ; 1 bytes @ 0x24
   525  0044                     	ds	1
   526  0045                     ??_decimal:
   527                           
   528                           ; 1 bytes @ 0x25
   529  0045                     	ds	4
   530  0049                     decimal@variable:
   531                           
   532                           ; 1 bytes @ 0x29
   533  0049                     	ds	1
   534  004A                     ??_main:
   535                           
   536                           ; 1 bytes @ 0x2A
   537  004A                     	ds	2
   538                           
   539                           	psect	maintext
   540  0F45                     __pmaintext:	
   541 ;;
   542 ;;Main: autosize = 0, tempsize = 2, incstack = 0, save=0
   543 ;;
   544 ;; *************** function _main *****************
   545 ;; Defined at:
   546 ;;		line 140 in file "MainL5.c"
   547 ;; Parameters:    Size  Location     Type
   548 ;;		None
   549 ;; Auto vars:     Size  Location     Type
   550 ;;		None
   551 ;; Return value:  Size  Location     Type
   552 ;;                  1    wreg      void 
   553 ;; Registers used:
   554 ;;		wreg, fsr0l, fsr0h, status,2, status,0, btemp+1, pclath, cstack
   555 ;; Tracked objects:
   556 ;;		On entry : B00/0
   557 ;;		On exit  : 0/0
   558 ;;		Unchanged: 0/0
   559 ;; Data sizes:     COMMON   BANK0   BANK1   BANK3   BANK2
   560 ;;      Params:         0       0       0       0       0
   561 ;;      Locals:         0       0       0       0       0
   562 ;;      Temps:          0       2       0       0       0
   563 ;;      Totals:         0       2       0       0       0
   564 ;;Total ram usage:        2 bytes
   565 ;; Hardware stack levels required when called: 5
   566 ;; This function calls:
   567 ;;		_decimal
   568 ;;		_setup
   569 ;; This function is called by:
   570 ;;		Startup code after reset
   571 ;; This function uses a non-reentrant model
   572 ;;
   573                           
   574                           
   575                           ;psect for function _main
   576  0F45                     _main:
   577  0F45                     l2182:	
   578                           ;incstack = 0
   579                           ; Regs used in _main: [wreg-fsr0h+status,2+status,0+btemp+1+pclath+cstack]
   580                           
   581                           
   582                           ;MainL5.c: 141:     setup();
   583  0F45  120A  158A  27C9  120A  158A  	fcall	_setup
   584  0F4A                     l2184:
   585                           
   586                           ;MainL5.c: 149:     decimal(contador);
   587  0F4A  1283               	bcf	3,5	;RP0=0, select bank0
   588  0F4B  1303               	bcf	3,6	;RP1=0, select bank0
   589  0F4C  0852               	movf	_contador,w
   590  0F4D  120A  118A  2488  120A  158A  	fcall	_decimal
   591  0F52                     l2186:
   592                           
   593                           ;MainL5.c: 154:     _delay((unsigned long)((100)*(4000000/4000.0)));
   594  0F52  3082               	movlw	130
   595  0F53  1283               	bcf	3,5	;RP0=0, select bank0
   596  0F54  1303               	bcf	3,6	;RP1=0, select bank0
   597  0F55  00CB               	movwf	??_main+1
   598  0F56  30DD               	movlw	221
   599  0F57  00CA               	movwf	??_main
   600  0F58                     u2547:
   601  0F58  0BCA               	decfsz	??_main,f
   602  0F59  2F58               	goto	u2547
   603  0F5A  0BCB               	decfsz	??_main+1,f
   604  0F5B  2F58               	goto	u2547
   605  0F5C  2F4A               	goto	l2184
   606  0F5D  120A  118A  280C   	ljmp	start
   607  0F60                     __end_of_main:
   608                           
   609                           	psect	text1
   610  0FC9                     __ptext1:	
   611 ;; *************** function _setup *****************
   612 ;; Defined at:
   613 ;;		line 162 in file "MainL5.c"
   614 ;; Parameters:    Size  Location     Type
   615 ;;		None
   616 ;; Auto vars:     Size  Location     Type
   617 ;;		None
   618 ;; Return value:  Size  Location     Type
   619 ;;                  1    wreg      void 
   620 ;; Registers used:
   621 ;;		wreg, fsr0l, fsr0h, status,2, status,0, pclath, cstack
   622 ;; Tracked objects:
   623 ;;		On entry : 0/0
   624 ;;		On exit  : 0/0
   625 ;;		Unchanged: 0/0
   626 ;; Data sizes:     COMMON   BANK0   BANK1   BANK3   BANK2
   627 ;;      Params:         0       0       0       0       0
   628 ;;      Locals:         0       0       0       0       0
   629 ;;      Temps:          0       0       0       0       0
   630 ;;      Totals:         0       0       0       0       0
   631 ;;Total ram usage:        0 bytes
   632 ;; Hardware stack levels used: 1
   633 ;; Hardware stack levels required when called: 3
   634 ;; This function calls:
   635 ;;		_initEUSART
   636 ;;		_initOsc
   637 ;;		_pushPORTB
   638 ;; This function is called by:
   639 ;;		_main
   640 ;; This function uses a non-reentrant model
   641 ;;
   642                           
   643                           
   644                           ;psect for function _setup
   645  0FC9                     _setup:
   646  0FC9                     l2058:	
   647                           ;incstack = 0
   648                           ; Regs used in _setup: [wreg-fsr0h+status,2+status,0+pclath+cstack]
   649                           
   650                           
   651                           ;MainL5.c: 165:   ANSELH = 0b00000000;
   652  0FC9  1683               	bsf	3,5	;RP0=1, select bank3
   653  0FCA  1703               	bsf	3,6	;RP1=1, select bank3
   654  0FCB  0189               	clrf	9	;volatile
   655                           
   656                           ;MainL5.c: 167:   TRISA = 0b00000000;
   657  0FCC  1683               	bsf	3,5	;RP0=1, select bank1
   658  0FCD  1303               	bcf	3,6	;RP1=0, select bank1
   659  0FCE  0185               	clrf	5	;volatile
   660  0FCF                     l2060:
   661                           
   662                           ;MainL5.c: 168:   TRISB = 0b00000011;
   663  0FCF  3003               	movlw	3
   664  0FD0  0086               	movwf	6	;volatile
   665  0FD1                     l2062:
   666                           
   667                           ;MainL5.c: 169:   TRISC = 0b10000000;
   668  0FD1  3080               	movlw	128
   669  0FD2  0087               	movwf	7	;volatile
   670                           
   671                           ;MainL5.c: 170:   TRISD = 0x00;
   672  0FD3  0188               	clrf	8	;volatile
   673                           
   674                           ;MainL5.c: 171:   TRISE = 0x00;
   675  0FD4  0189               	clrf	9	;volatile
   676  0FD5                     l2064:
   677                           
   678                           ;MainL5.c: 173:   OPTION_REG = 0b01000100;
   679  0FD5  3044               	movlw	68
   680  0FD6  0081               	movwf	1	;volatile
   681  0FD7                     l2066:
   682                           
   683                           ;MainL5.c: 177:   initOsc(4);
   684  0FD7  3004               	movlw	4
   685  0FD8  120A  118A  2788  120A  158A  	fcall	_initOsc
   686  0FDD                     l2068:
   687                           
   688                           ;MainL5.c: 178:   initEUSART(0,1);
   689  0FDD  1283               	bcf	3,5	;RP0=0, select bank0
   690  0FDE  1303               	bcf	3,6	;RP1=0, select bank0
   691  0FDF  01A0               	clrf	initEUSART@rx
   692  0FE0  0AA0               	incf	initEUSART@rx,f
   693  0FE1  3000               	movlw	0
   694  0FE2  120A  158A  2760  120A  158A  	fcall	_initEUSART
   695  0FE7                     l2070:
   696                           
   697                           ;MainL5.c: 179:   pushPORTB(0b00000011);
   698  0FE7  3003               	movlw	3
   699  0FE8  120A  118A  27E6  120A  158A  	fcall	_pushPORTB
   700  0FED                     l2072:
   701                           
   702                           ;MainL5.c: 180:   PORTA = 0x00;
   703  0FED  1283               	bcf	3,5	;RP0=0, select bank0
   704  0FEE  1303               	bcf	3,6	;RP1=0, select bank0
   705  0FEF  0185               	clrf	5	;volatile
   706  0FF0                     l2074:
   707                           
   708                           ;MainL5.c: 181:   PORTB = 0x00;
   709  0FF0  0186               	clrf	6	;volatile
   710  0FF1                     l2076:
   711                           
   712                           ;MainL5.c: 182:   PORTC = 0x00;
   713  0FF1  0187               	clrf	7	;volatile
   714  0FF2                     l2078:
   715                           
   716                           ;MainL5.c: 183:   PORTD = 0x00;
   717  0FF2  0188               	clrf	8	;volatile
   718  0FF3                     l2080:
   719                           
   720                           ;MainL5.c: 184:   PORTE = 0x00;
   721  0FF3  0189               	clrf	9	;volatile
   722  0FF4                     l2082:
   723                           
   724                           ;MainL5.c: 188:   PIE1 = 0b00100000;
   725  0FF4  3020               	movlw	32
   726  0FF5  1683               	bsf	3,5	;RP0=1, select bank1
   727  0FF6  1303               	bcf	3,6	;RP1=0, select bank1
   728  0FF7  008C               	movwf	12	;volatile
   729  0FF8                     l2084:
   730                           
   731                           ;MainL5.c: 189:   PIE2 = 0b00000000;
   732  0FF8  018D               	clrf	13	;volatile
   733  0FF9                     l2086:
   734                           
   735                           ;MainL5.c: 190:   PIR1 = 0x00;
   736  0FF9  1283               	bcf	3,5	;RP0=0, select bank0
   737  0FFA  1303               	bcf	3,6	;RP1=0, select bank0
   738  0FFB  018C               	clrf	12	;volatile
   739  0FFC                     l2088:
   740                           
   741                           ;MainL5.c: 191:   PIR2 = 0x00;
   742  0FFC  018D               	clrf	13	;volatile
   743  0FFD                     l2090:
   744                           
   745                           ;MainL5.c: 192:   INTCON = 0b11001000;
   746  0FFD  30C8               	movlw	200
   747  0FFE  008B               	movwf	11	;volatile
   748  0FFF                     l235:
   749  0FFF  0008               	return
   750  1000                     __end_of_setup:
   751                           
   752                           	psect	text2
   753  07E6                     __ptext2:	
   754 ;; *************** function _pushPORTB *****************
   755 ;; Defined at:
   756 ;;		line 341 in file "./my_lib.h"
   757 ;; Parameters:    Size  Location     Type
   758 ;;  val             1    wreg     unsigned char 
   759 ;; Auto vars:     Size  Location     Type
   760 ;;  val             1    0[BANK0 ] unsigned char 
   761 ;; Return value:  Size  Location     Type
   762 ;;                  1    wreg      void 
   763 ;; Registers used:
   764 ;;		wreg, status,2
   765 ;; Tracked objects:
   766 ;;		On entry : 0/0
   767 ;;		On exit  : 0/0
   768 ;;		Unchanged: 0/0
   769 ;; Data sizes:     COMMON   BANK0   BANK1   BANK3   BANK2
   770 ;;      Params:         0       0       0       0       0
   771 ;;      Locals:         0       1       0       0       0
   772 ;;      Temps:          0       0       0       0       0
   773 ;;      Totals:         0       1       0       0       0
   774 ;;Total ram usage:        1 bytes
   775 ;; Hardware stack levels used: 1
   776 ;; Hardware stack levels required when called: 2
   777 ;; This function calls:
   778 ;;		Nothing
   779 ;; This function is called by:
   780 ;;		_setup
   781 ;; This function uses a non-reentrant model
   782 ;;
   783                           
   784                           
   785                           ;psect for function _pushPORTB
   786  07E6                     _pushPORTB:
   787                           
   788                           ;incstack = 0
   789                           ; Regs used in _pushPORTB: [wreg+status,2]
   790                           ;pushPORTB@val stored from wreg
   791  07E6  1283               	bcf	3,5	;RP0=0, select bank0
   792  07E7  1303               	bcf	3,6	;RP1=0, select bank0
   793  07E8  00A0               	movwf	pushPORTB@val
   794  07E9                     l1810:
   795                           
   796                           ;./my_lib.h: 342:   TRISB = val;
   797  07E9  0820               	movf	pushPORTB@val,w
   798  07EA  1683               	bsf	3,5	;RP0=1, select bank1
   799  07EB  1303               	bcf	3,6	;RP1=0, select bank1
   800  07EC  0086               	movwf	6	;volatile
   801                           
   802                           ;./my_lib.h: 343:   WPUB = val;
   803  07ED  1283               	bcf	3,5	;RP0=0, select bank0
   804  07EE  1303               	bcf	3,6	;RP1=0, select bank0
   805  07EF  0820               	movf	pushPORTB@val,w
   806  07F0  1683               	bsf	3,5	;RP0=1, select bank1
   807  07F1  1303               	bcf	3,6	;RP1=0, select bank1
   808  07F2  0095               	movwf	21	;volatile
   809                           
   810                           ;./my_lib.h: 344:   IOCB = val;
   811  07F3  1283               	bcf	3,5	;RP0=0, select bank0
   812  07F4  1303               	bcf	3,6	;RP1=0, select bank0
   813  07F5  0820               	movf	pushPORTB@val,w
   814  07F6  1683               	bsf	3,5	;RP0=1, select bank1
   815  07F7  1303               	bcf	3,6	;RP1=0, select bank1
   816  07F8  0096               	movwf	22	;volatile
   817  07F9                     l1812:
   818                           
   819                           ;./my_lib.h: 345:   OPTION_REG = OPTION_REG & 0x7F;
   820  07F9  0801               	movf	1,w	;volatile
   821  07FA  397F               	andlw	127
   822  07FB  0081               	movwf	1	;volatile
   823  07FC                     l1814:
   824                           
   825                           ;./my_lib.h: 346:   INTCONbits.RBIE = 1;
   826  07FC  158B               	bsf	11,3	;volatile
   827  07FD                     l173:
   828  07FD  0008               	return
   829  07FE                     __end_of_pushPORTB:
   830                           
   831                           	psect	text3
   832  0788                     __ptext3:	
   833 ;; *************** function _initOsc *****************
   834 ;; Defined at:
   835 ;;		line 14 in file "./my_lib.h"
   836 ;; Parameters:    Size  Location     Type
   837 ;;  frec            1    wreg     unsigned char 
   838 ;; Auto vars:     Size  Location     Type
   839 ;;  frec            1    2[BANK0 ] unsigned char 
   840 ;; Return value:  Size  Location     Type
   841 ;;                  1    wreg      void 
   842 ;; Registers used:
   843 ;;		wreg, fsr0l, fsr0h, status,2, status,0
   844 ;; Tracked objects:
   845 ;;		On entry : 0/0
   846 ;;		On exit  : 0/0
   847 ;;		Unchanged: 0/0
   848 ;; Data sizes:     COMMON   BANK0   BANK1   BANK3   BANK2
   849 ;;      Params:         0       0       0       0       0
   850 ;;      Locals:         0       1       0       0       0
   851 ;;      Temps:          0       2       0       0       0
   852 ;;      Totals:         0       3       0       0       0
   853 ;;Total ram usage:        3 bytes
   854 ;; Hardware stack levels used: 1
   855 ;; Hardware stack levels required when called: 2
   856 ;; This function calls:
   857 ;;		Nothing
   858 ;; This function is called by:
   859 ;;		_setup
   860 ;; This function uses a non-reentrant model
   861 ;;
   862                           
   863                           
   864                           ;psect for function _initOsc
   865  0788                     _initOsc:
   866                           
   867                           ;incstack = 0
   868                           ; Regs used in _initOsc: [wreg-fsr0h+status,2+status,0]
   869                           ;initOsc@frec stored from wreg
   870  0788  1283               	bcf	3,5	;RP0=0, select bank0
   871  0789  1303               	bcf	3,6	;RP1=0, select bank0
   872  078A  00A2               	movwf	initOsc@frec
   873  078B                     l1792:
   874                           
   875                           ;./my_lib.h: 16:         switch(frec){
   876  078B  2FC2               	goto	l1796
   877  078C                     l86:	
   878                           ;./my_lib.h: 17:             case 8:
   879                           
   880                           
   881                           ;./my_lib.h: 18:                 OSCCONbits.IRCF0 = 1;
   882  078C  1683               	bsf	3,5	;RP0=1, select bank1
   883  078D  1303               	bcf	3,6	;RP1=0, select bank1
   884  078E  160F               	bsf	15,4	;volatile
   885                           
   886                           ;./my_lib.h: 19:                 OSCCONbits.IRCF1 = 1;
   887  078F  168F               	bsf	15,5	;volatile
   888                           
   889                           ;./my_lib.h: 20:                 OSCCONbits.IRCF2 = 1;
   890  0790  170F               	bsf	15,6	;volatile
   891                           
   892                           ;./my_lib.h: 21:                 break;
   893  0791  2FE4               	goto	l87
   894  0792                     l88:	
   895                           ;./my_lib.h: 23:             case 4:
   896                           
   897                           
   898                           ;./my_lib.h: 24:                 OSCCONbits.IRCF0 = 0;
   899  0792  1683               	bsf	3,5	;RP0=1, select bank1
   900  0793  1303               	bcf	3,6	;RP1=0, select bank1
   901  0794  120F               	bcf	15,4	;volatile
   902                           
   903                           ;./my_lib.h: 25:                 OSCCONbits.IRCF1 = 1;
   904  0795  168F               	bsf	15,5	;volatile
   905                           
   906                           ;./my_lib.h: 26:                 OSCCONbits.IRCF2 = 1;
   907  0796  170F               	bsf	15,6	;volatile
   908                           
   909                           ;./my_lib.h: 27:                 break;
   910  0797  2FE4               	goto	l87
   911  0798                     l89:	
   912                           ;./my_lib.h: 28:             case 2:
   913                           
   914                           
   915                           ;./my_lib.h: 29:                 OSCCONbits.IRCF0 = 1;
   916  0798  1683               	bsf	3,5	;RP0=1, select bank1
   917  0799  1303               	bcf	3,6	;RP1=0, select bank1
   918  079A  160F               	bsf	15,4	;volatile
   919                           
   920                           ;./my_lib.h: 30:                 OSCCONbits.IRCF1 = 0;
   921  079B  128F               	bcf	15,5	;volatile
   922                           
   923                           ;./my_lib.h: 31:                 OSCCONbits.IRCF2 = 1;
   924  079C  170F               	bsf	15,6	;volatile
   925                           
   926                           ;./my_lib.h: 32:                 break;
   927  079D  2FE4               	goto	l87
   928  079E                     l90:	
   929                           ;./my_lib.h: 33:              case 1:
   930                           
   931                           
   932                           ;./my_lib.h: 34:                 OSCCONbits.IRCF0 = 0;
   933  079E  1683               	bsf	3,5	;RP0=1, select bank1
   934  079F  1303               	bcf	3,6	;RP1=0, select bank1
   935  07A0  120F               	bcf	15,4	;volatile
   936                           
   937                           ;./my_lib.h: 35:                 OSCCONbits.IRCF1 = 0;
   938  07A1  128F               	bcf	15,5	;volatile
   939                           
   940                           ;./my_lib.h: 36:                 OSCCONbits.IRCF2 = 1;
   941  07A2  170F               	bsf	15,6	;volatile
   942                           
   943                           ;./my_lib.h: 37:                 break;
   944  07A3  2FE4               	goto	l87
   945  07A4                     l91:	
   946                           ;./my_lib.h: 38:              case 50:
   947                           
   948                           
   949                           ;./my_lib.h: 39:                 OSCCONbits.IRCF0 = 0;
   950  07A4  1683               	bsf	3,5	;RP0=1, select bank1
   951  07A5  1303               	bcf	3,6	;RP1=0, select bank1
   952  07A6  120F               	bcf	15,4	;volatile
   953                           
   954                           ;./my_lib.h: 40:                 OSCCONbits.IRCF1 = 1;
   955  07A7  168F               	bsf	15,5	;volatile
   956                           
   957                           ;./my_lib.h: 41:                 OSCCONbits.IRCF2 = 1;
   958  07A8  170F               	bsf	15,6	;volatile
   959                           
   960                           ;./my_lib.h: 42:                 break;
   961  07A9  2FE4               	goto	l87
   962  07AA                     l92:	
   963                           ;./my_lib.h: 43:              case 25:
   964                           
   965                           
   966                           ;./my_lib.h: 44:                 OSCCONbits.IRCF0 = 0;
   967  07AA  1683               	bsf	3,5	;RP0=1, select bank1
   968  07AB  1303               	bcf	3,6	;RP1=0, select bank1
   969  07AC  120F               	bcf	15,4	;volatile
   970                           
   971                           ;./my_lib.h: 45:                 OSCCONbits.IRCF1 = 1;
   972  07AD  168F               	bsf	15,5	;volatile
   973                           
   974                           ;./my_lib.h: 46:                 OSCCONbits.IRCF2 = 0;
   975  07AE  130F               	bcf	15,6	;volatile
   976                           
   977                           ;./my_lib.h: 47:                 break;
   978  07AF  2FE4               	goto	l87
   979  07B0                     l93:	
   980                           ;./my_lib.h: 48:               case 12:
   981                           
   982                           
   983                           ;./my_lib.h: 49:                 OSCCONbits.IRCF0 = 1;
   984  07B0  1683               	bsf	3,5	;RP0=1, select bank1
   985  07B1  1303               	bcf	3,6	;RP1=0, select bank1
   986  07B2  160F               	bsf	15,4	;volatile
   987                           
   988                           ;./my_lib.h: 50:                 OSCCONbits.IRCF1 = 0;
   989  07B3  128F               	bcf	15,5	;volatile
   990                           
   991                           ;./my_lib.h: 51:                 OSCCONbits.IRCF2 = 0;
   992  07B4  130F               	bcf	15,6	;volatile
   993                           
   994                           ;./my_lib.h: 52:                 break;
   995  07B5  2FE4               	goto	l87
   996  07B6                     l94:	
   997                           ;./my_lib.h: 53:               case 31:
   998                           
   999                           
  1000                           ;./my_lib.h: 54:                 OSCCONbits.IRCF0 = 0;
  1001  07B6  1683               	bsf	3,5	;RP0=1, select bank1
  1002  07B7  1303               	bcf	3,6	;RP1=0, select bank1
  1003  07B8  120F               	bcf	15,4	;volatile
  1004                           
  1005                           ;./my_lib.h: 55:                 OSCCONbits.IRCF1 = 1;
  1006  07B9  168F               	bsf	15,5	;volatile
  1007                           
  1008                           ;./my_lib.h: 56:                 OSCCONbits.IRCF2 = 1;
  1009  07BA  170F               	bsf	15,6	;volatile
  1010                           
  1011                           ;./my_lib.h: 57:                 break;
  1012  07BB  2FE4               	goto	l87
  1013  07BC                     l95:	
  1014                           ;./my_lib.h: 58:               default:
  1015                           
  1016                           
  1017                           ;./my_lib.h: 59:                 OSCCONbits.IRCF0 = 0;
  1018  07BC  1683               	bsf	3,5	;RP0=1, select bank1
  1019  07BD  1303               	bcf	3,6	;RP1=0, select bank1
  1020  07BE  120F               	bcf	15,4	;volatile
  1021                           
  1022                           ;./my_lib.h: 60:                 OSCCONbits.IRCF1 = 1;
  1023  07BF  168F               	bsf	15,5	;volatile
  1024                           
  1025                           ;./my_lib.h: 61:                 OSCCONbits.IRCF2 = 1;
  1026  07C0  170F               	bsf	15,6	;volatile
  1027                           
  1028                           ;./my_lib.h: 62:                 break;
  1029  07C1  2FE4               	goto	l87
  1030  07C2                     l1796:
  1031  07C2  0822               	movf	initOsc@frec,w
  1032  07C3  00A0               	movwf	??_initOsc
  1033  07C4  01A1               	clrf	??_initOsc+1
  1034                           
  1035                           ; Switch on 2 bytes has been partitioned into a top level switch of size 1, and 1 sub-sw
      +                          itches
  1036                           ; Switch size 1, requested type "simple"
  1037                           ; Number of cases is 1, Range of values is 0 to 0
  1038                           ; switch strategies available:
  1039                           ; Name         Instructions Cycles
  1040                           ; simple_byte            4     3 (average)
  1041                           ; direct_byte           11     8 (fixed)
  1042                           ; jumptable            260     6 (fixed)
  1043                           ;	Chosen strategy is simple_byte
  1044  07C5  0821               	movf	??_initOsc+1,w
  1045  07C6  3A00               	xorlw	0	; case 0
  1046  07C7  1903               	skipnz
  1047  07C8  2FCA               	goto	l2218
  1048  07C9  2FBC               	goto	l95
  1049  07CA                     l2218:
  1050                           
  1051                           ; Switch size 1, requested type "simple"
  1052                           ; Number of cases is 8, Range of values is 1 to 50
  1053                           ; switch strategies available:
  1054                           ; Name         Instructions Cycles
  1055                           ; simple_byte           25    13 (average)
  1056                           ; direct_byte          161    11 (fixed)
  1057                           ; jumptable            263     9 (fixed)
  1058                           ;	Chosen strategy is simple_byte
  1059  07CA  0820               	movf	??_initOsc,w
  1060  07CB  3A01               	xorlw	1	; case 1
  1061  07CC  1903               	skipnz
  1062  07CD  2F9E               	goto	l90
  1063  07CE  3A03               	xorlw	3	; case 2
  1064  07CF  1903               	skipnz
  1065  07D0  2F98               	goto	l89
  1066  07D1  3A06               	xorlw	6	; case 4
  1067  07D2  1903               	skipnz
  1068  07D3  2F92               	goto	l88
  1069  07D4  3A0C               	xorlw	12	; case 8
  1070  07D5  1903               	skipnz
  1071  07D6  2F8C               	goto	l86
  1072  07D7  3A04               	xorlw	4	; case 12
  1073  07D8  1903               	skipnz
  1074  07D9  2FB0               	goto	l93
  1075  07DA  3A15               	xorlw	21	; case 25
  1076  07DB  1903               	skipnz
  1077  07DC  2FAA               	goto	l92
  1078  07DD  3A06               	xorlw	6	; case 31
  1079  07DE  1903               	skipnz
  1080  07DF  2FB6               	goto	l94
  1081  07E0  3A2D               	xorlw	45	; case 50
  1082  07E1  1903               	skipnz
  1083  07E2  2FA4               	goto	l91
  1084  07E3  2FBC               	goto	l95
  1085  07E4                     l87:
  1086                           
  1087                           ;./my_lib.h: 64:     OSCCONbits.SCS = 1;
  1088  07E4  140F               	bsf	15,0	;volatile
  1089  07E5                     l96:
  1090  07E5  0008               	return
  1091  07E6                     __end_of_initOsc:
  1092                           
  1093                           	psect	text4
  1094  0F60                     __ptext4:	
  1095 ;; *************** function _initEUSART *****************
  1096 ;; Defined at:
  1097 ;;		line 318 in file "./my_lib.h"
  1098 ;; Parameters:    Size  Location     Type
  1099 ;;  tx              1    wreg     unsigned char 
  1100 ;;  rx              1    0[BANK0 ] unsigned char 
  1101 ;; Auto vars:     Size  Location     Type
  1102 ;;  tx              1    0[COMMON] unsigned char 
  1103 ;; Return value:  Size  Location     Type
  1104 ;;                  1    wreg      void 
  1105 ;; Registers used:
  1106 ;;		wreg, status,0
  1107 ;; Tracked objects:
  1108 ;;		On entry : 0/0
  1109 ;;		On exit  : 0/0
  1110 ;;		Unchanged: 0/0
  1111 ;; Data sizes:     COMMON   BANK0   BANK1   BANK3   BANK2
  1112 ;;      Params:         0       1       0       0       0
  1113 ;;      Locals:         0       0       0       0       0
  1114 ;;      Temps:          0       0       0       0       0
  1115 ;;      Totals:         0       1       0       0       0
  1116 ;;Total ram usage:        1 bytes
  1117 ;; Hardware stack levels used: 1
  1118 ;; Hardware stack levels required when called: 2
  1119 ;; This function calls:
  1120 ;;		Nothing
  1121 ;; This function is called by:
  1122 ;;		_setup
  1123 ;; This function uses a non-reentrant model
  1124 ;;
  1125                           
  1126                           
  1127                           ;psect for function _initEUSART
  1128  0F60                     _initEUSART:
  1129  0F60                     l1804:	
  1130                           ;incstack = 0
  1131                           ; Regs used in _initEUSART: [wreg+status,0]
  1132                           
  1133                           
  1134                           ;./my_lib.h: 322:   TXSTAbits.SYNC = 0;
  1135  0F60  1683               	bsf	3,5	;RP0=1, select bank1
  1136  0F61  1303               	bcf	3,6	;RP1=0, select bank1
  1137  0F62  1218               	bcf	24,4	;volatile
  1138                           
  1139                           ;./my_lib.h: 323:   TXSTAbits.BRGH = 1;
  1140  0F63  1518               	bsf	24,2	;volatile
  1141                           
  1142                           ;./my_lib.h: 324:   TXSTAbits.TX9 = 0;
  1143  0F64  1318               	bcf	24,6	;volatile
  1144                           
  1145                           ;./my_lib.h: 325:   TXSTAbits.TXEN= 1;
  1146  0F65  1698               	bsf	24,5	;volatile
  1147                           
  1148                           ;./my_lib.h: 326:   RCSTAbits.SPEN = 1;
  1149  0F66  1283               	bcf	3,5	;RP0=0, select bank0
  1150  0F67  1303               	bcf	3,6	;RP1=0, select bank0
  1151  0F68  1798               	bsf	24,7	;volatile
  1152                           
  1153                           ;./my_lib.h: 329:   RCSTAbits.RX9 = 0;
  1154  0F69  1318               	bcf	24,6	;volatile
  1155                           
  1156                           ;./my_lib.h: 330:   RCSTAbits.CREN = 1;
  1157  0F6A  1618               	bsf	24,4	;volatile
  1158                           
  1159                           ;./my_lib.h: 333:     BAUDCTLbits.BRG16 = 0;
  1160  0F6B  1683               	bsf	3,5	;RP0=1, select bank3
  1161  0F6C  1703               	bsf	3,6	;RP1=1, select bank3
  1162  0F6D  1187               	bcf	7,3	;volatile
  1163  0F6E                     l1806:
  1164                           
  1165                           ;./my_lib.h: 334:     SPBRG =25;
  1166  0F6E  3019               	movlw	25
  1167  0F6F  1683               	bsf	3,5	;RP0=1, select bank1
  1168  0F70  1303               	bcf	3,6	;RP1=0, select bank1
  1169  0F71  0099               	movwf	25	;volatile
  1170                           
  1171                           ;./my_lib.h: 335:     SPBRGH = 1;
  1172  0F72  3001               	movlw	1
  1173  0F73  009A               	movwf	26	;volatile
  1174  0F74                     l1808:
  1175                           
  1176                           ;./my_lib.h: 338:     PIE1bits.RCIE =rx;
  1177  0F74  1283               	bcf	3,5	;RP0=0, select bank0
  1178  0F75  1303               	bcf	3,6	;RP1=0, select bank0
  1179  0F76  0C20               	rrf	initEUSART@rx,w
  1180  0F77  1683               	bsf	3,5	;RP0=1, select bank1
  1181  0F78  1303               	bcf	3,6	;RP1=0, select bank1
  1182  0F79  1C03               	skipc
  1183  0F7A  128C               	bcf	12,5	;volatile
  1184  0F7B  1803               	skipnc
  1185  0F7C  168C               	bsf	12,5	;volatile
  1186  0F7D                     l170:
  1187  0F7D  0008               	return
  1188  0F7E                     __end_of_initEUSART:
  1189                           
  1190                           	psect	text5
  1191  0488                     __ptext5:	
  1192 ;; *************** function _decimal *****************
  1193 ;; Defined at:
  1194 ;;		line 198 in file "MainL5.c"
  1195 ;; Parameters:    Size  Location     Type
  1196 ;;  variable        1    wreg     unsigned char 
  1197 ;; Auto vars:     Size  Location     Type
  1198 ;;  variable        1   41[BANK0 ] unsigned char 
  1199 ;; Return value:  Size  Location     Type
  1200 ;;                  1    wreg      void 
  1201 ;; Registers used:
  1202 ;;		wreg, status,2, status,0, btemp+1, pclath, cstack
  1203 ;; Tracked objects:
  1204 ;;		On entry : 0/0
  1205 ;;		On exit  : 0/0
  1206 ;;		Unchanged: 0/0
  1207 ;; Data sizes:     COMMON   BANK0   BANK1   BANK3   BANK2
  1208 ;;      Params:         0       0       0       0       0
  1209 ;;      Locals:         0       1       0       0       0
  1210 ;;      Temps:          0       4       0       0       0
  1211 ;;      Totals:         0       5       0       0       0
  1212 ;;Total ram usage:        5 bytes
  1213 ;; Hardware stack levels used: 1
  1214 ;; Hardware stack levels required when called: 4
  1215 ;; This function calls:
  1216 ;;		___fldiv
  1217 ;;		___flsub
  1218 ;;		___fltol
  1219 ;;		___wmul
  1220 ;;		___xxtofl
  1221 ;; This function is called by:
  1222 ;;		_main
  1223 ;; This function uses a non-reentrant model
  1224 ;;
  1225                           
  1226                           
  1227                           ;psect for function _decimal
  1228  0488                     _decimal:
  1229                           
  1230                           ;incstack = 0
  1231                           ; Regs used in _decimal: [wreg+status,2+status,0+btemp+1+pclath+cstack]
  1232                           ;decimal@variable stored from wreg
  1233  0488  1283               	bcf	3,5	;RP0=0, select bank0
  1234  0489  1303               	bcf	3,6	;RP1=0, select bank0
  1235  048A  00C9               	movwf	decimal@variable
  1236  048B                     l2092:
  1237                           
  1238                           ;MainL5.c: 200:     valor = variable;
  1239  048B  0849               	movf	decimal@variable,w
  1240  048C  00C5               	movwf	??_decimal
  1241  048D  01C6               	clrf	??_decimal+1
  1242  048E  01C7               	clrf	??_decimal+2
  1243  048F  01C8               	clrf	??_decimal+3
  1244  0490  0848               	movf	??_decimal+3,w
  1245  0491  00A9               	movwf	___xxtofl@val+3
  1246  0492  0847               	movf	??_decimal+2,w
  1247  0493  00A8               	movwf	___xxtofl@val+2
  1248  0494  0846               	movf	??_decimal+1,w
  1249  0495  00A7               	movwf	___xxtofl@val+1
  1250  0496  0845               	movf	??_decimal,w
  1251  0497  00A6               	movwf	___xxtofl@val
  1252  0498  3000               	movlw	0
  1253  0499  120A  118A  25A3  120A  118A  	fcall	___xxtofl
  1254  049E  1283               	bcf	3,5	;RP0=0, select bank0
  1255  049F  1303               	bcf	3,6	;RP1=0, select bank0
  1256  04A0  0829               	movf	?___xxtofl+3,w
  1257  04A1  00CF               	movwf	_valor+3
  1258  04A2  0828               	movf	?___xxtofl+2,w
  1259  04A3  00CE               	movwf	_valor+2
  1260  04A4  0827               	movf	?___xxtofl+1,w
  1261  04A5  00CD               	movwf	_valor+1
  1262  04A6  0826               	movf	?___xxtofl,w
  1263  04A7  00CC               	movwf	_valor
  1264  04A8                     l2094:
  1265                           
  1266                           ;MainL5.c: 202:     centenas = (valor/100) ;
  1267  04A8  084F               	movf	_valor+3,w
  1268  04A9  00A7               	movwf	___fldiv@b+3
  1269  04AA  084E               	movf	_valor+2,w
  1270  04AB  00A6               	movwf	___fldiv@b+2
  1271  04AC  084D               	movf	_valor+1,w
  1272  04AD  00A5               	movwf	___fldiv@b+1
  1273  04AE  084C               	movf	_valor,w
  1274  04AF  00A4               	movwf	___fldiv@b
  1275  04B0  3042               	movlw	66
  1276  04B1  00A3               	movwf	___fldiv@a+3
  1277  04B2  30C8               	movlw	200
  1278  04B3  00A2               	movwf	___fldiv@a+2
  1279  04B4  3000               	movlw	0
  1280  04B5  00A1               	movwf	___fldiv@a+1
  1281  04B6  3000               	movlw	0
  1282  04B7  00A0               	movwf	___fldiv@a
  1283  04B8  120A  118A  22AB  120A  118A  	fcall	___fldiv
  1284  04BD  1283               	bcf	3,5	;RP0=0, select bank0
  1285  04BE  1303               	bcf	3,6	;RP1=0, select bank0
  1286  04BF  0823               	movf	?___fldiv+3,w
  1287  04C0  00BD               	movwf	___fltol@f1+3
  1288  04C1  0822               	movf	?___fldiv+2,w
  1289  04C2  00BC               	movwf	___fltol@f1+2
  1290  04C3  0821               	movf	?___fldiv+1,w
  1291  04C4  00BB               	movwf	___fltol@f1+1
  1292  04C5  0820               	movf	?___fldiv,w
  1293  04C6  00BA               	movwf	___fltol@f1
  1294  04C7  120A  118A  270C  120A  118A  	fcall	___fltol
  1295  04CC  1283               	bcf	3,5	;RP0=0, select bank0
  1296  04CD  1303               	bcf	3,6	;RP1=0, select bank0
  1297  04CE  083A               	movf	?___fltol,w
  1298  04CF  00C5               	movwf	??_decimal
  1299  04D0  0845               	movf	??_decimal,w
  1300  04D1  00F9               	movwf	_centenas
  1301  04D2                     l2096:
  1302                           
  1303                           ;MainL5.c: 203:     valor = (valor - (centenas*100));
  1304  04D2  3064               	movlw	100
  1305  04D3  00A2               	movwf	___wmul@multiplicand
  1306  04D4  3000               	movlw	0
  1307  04D5  00A3               	movwf	___wmul@multiplicand+1
  1308  04D6  0879               	movf	_centenas,w
  1309  04D7  00C5               	movwf	??_decimal
  1310  04D8  01C6               	clrf	??_decimal+1
  1311  04D9  0845               	movf	??_decimal,w
  1312  04DA  00A0               	movwf	___wmul@multiplier
  1313  04DB  0846               	movf	??_decimal+1,w
  1314  04DC  00A1               	movwf	___wmul@multiplier+1
  1315  04DD  120A  158A  27A2  120A  118A  	fcall	___wmul
  1316  04E2  1283               	bcf	3,5	;RP0=0, select bank0
  1317  04E3  1303               	bcf	3,6	;RP1=0, select bank0
  1318  04E4  0820               	movf	?___wmul,w
  1319  04E5  00A6               	movwf	___xxtofl@val
  1320  04E6  0821               	movf	?___wmul+1,w
  1321  04E7  00A7               	movwf	___xxtofl@val+1
  1322  04E8  3000               	movlw	0
  1323  04E9  1BA7               	btfsc	___xxtofl@val+1,7
  1324  04EA  30FF               	movlw	255
  1325  04EB  00A8               	movwf	___xxtofl@val+2
  1326  04EC  00A9               	movwf	___xxtofl@val+3
  1327  04ED  3001               	movlw	1
  1328  04EE  120A  118A  25A3  120A  118A  	fcall	___xxtofl
  1329  04F3  1283               	bcf	3,5	;RP0=0, select bank0
  1330  04F4  1303               	bcf	3,6	;RP1=0, select bank0
  1331  04F5  0829               	movf	?___xxtofl+3,w
  1332  04F6  00B7               	movwf	___flsub@a+3
  1333  04F7  0828               	movf	?___xxtofl+2,w
  1334  04F8  00B6               	movwf	___flsub@a+2
  1335  04F9  0827               	movf	?___xxtofl+1,w
  1336  04FA  00B5               	movwf	___flsub@a+1
  1337  04FB  0826               	movf	?___xxtofl,w
  1338  04FC  00B4               	movwf	___flsub@a
  1339  04FD  084F               	movf	_valor+3,w
  1340  04FE  00BB               	movwf	___flsub@b+3
  1341  04FF  084E               	movf	_valor+2,w
  1342  0500  00BA               	movwf	___flsub@b+2
  1343  0501  084D               	movf	_valor+1,w
  1344  0502  00B9               	movwf	___flsub@b+1
  1345  0503  084C               	movf	_valor,w
  1346  0504  00B8               	movwf	___flsub@b
  1347  0505  120A  158A  277E  120A  118A  	fcall	___flsub
  1348  050A  1283               	bcf	3,5	;RP0=0, select bank0
  1349  050B  1303               	bcf	3,6	;RP1=0, select bank0
  1350  050C  0837               	movf	?___flsub+3,w
  1351  050D  00CF               	movwf	_valor+3
  1352  050E  0836               	movf	?___flsub+2,w
  1353  050F  00CE               	movwf	_valor+2
  1354  0510  0835               	movf	?___flsub+1,w
  1355  0511  00CD               	movwf	_valor+1
  1356  0512  0834               	movf	?___flsub,w
  1357  0513  00CC               	movwf	_valor
  1358  0514                     l2098:
  1359                           
  1360                           ;MainL5.c: 204:     decenas = (valor/10);
  1361  0514  084F               	movf	_valor+3,w
  1362  0515  00A7               	movwf	___fldiv@b+3
  1363  0516  084E               	movf	_valor+2,w
  1364  0517  00A6               	movwf	___fldiv@b+2
  1365  0518  084D               	movf	_valor+1,w
  1366  0519  00A5               	movwf	___fldiv@b+1
  1367  051A  084C               	movf	_valor,w
  1368  051B  00A4               	movwf	___fldiv@b
  1369  051C  3041               	movlw	65
  1370  051D  00A3               	movwf	___fldiv@a+3
  1371  051E  3020               	movlw	32
  1372  051F  00A2               	movwf	___fldiv@a+2
  1373  0520  3000               	movlw	0
  1374  0521  00A1               	movwf	___fldiv@a+1
  1375  0522  3000               	movlw	0
  1376  0523  00A0               	movwf	___fldiv@a
  1377  0524  120A  118A  22AB  120A  118A  	fcall	___fldiv
  1378  0529  1283               	bcf	3,5	;RP0=0, select bank0
  1379  052A  1303               	bcf	3,6	;RP1=0, select bank0
  1380  052B  0823               	movf	?___fldiv+3,w
  1381  052C  00BD               	movwf	___fltol@f1+3
  1382  052D  0822               	movf	?___fldiv+2,w
  1383  052E  00BC               	movwf	___fltol@f1+2
  1384  052F  0821               	movf	?___fldiv+1,w
  1385  0530  00BB               	movwf	___fltol@f1+1
  1386  0531  0820               	movf	?___fldiv,w
  1387  0532  00BA               	movwf	___fltol@f1
  1388  0533  120A  118A  270C  120A  118A  	fcall	___fltol
  1389  0538  1283               	bcf	3,5	;RP0=0, select bank0
  1390  0539  1303               	bcf	3,6	;RP1=0, select bank0
  1391  053A  083A               	movf	?___fltol,w
  1392  053B  00C5               	movwf	??_decimal
  1393  053C  0845               	movf	??_decimal,w
  1394  053D  00FA               	movwf	_decenas
  1395  053E                     l2100:
  1396                           
  1397                           ;MainL5.c: 205:     valor = (valor - (decenas*10));
  1398  053E  300A               	movlw	10
  1399  053F  00A2               	movwf	___wmul@multiplicand
  1400  0540  3000               	movlw	0
  1401  0541  00A3               	movwf	___wmul@multiplicand+1
  1402  0542  087A               	movf	_decenas,w
  1403  0543  00C5               	movwf	??_decimal
  1404  0544  01C6               	clrf	??_decimal+1
  1405  0545  0845               	movf	??_decimal,w
  1406  0546  00A0               	movwf	___wmul@multiplier
  1407  0547  0846               	movf	??_decimal+1,w
  1408  0548  00A1               	movwf	___wmul@multiplier+1
  1409  0549  120A  158A  27A2  120A  118A  	fcall	___wmul
  1410  054E  1283               	bcf	3,5	;RP0=0, select bank0
  1411  054F  1303               	bcf	3,6	;RP1=0, select bank0
  1412  0550  0820               	movf	?___wmul,w
  1413  0551  00A6               	movwf	___xxtofl@val
  1414  0552  0821               	movf	?___wmul+1,w
  1415  0553  00A7               	movwf	___xxtofl@val+1
  1416  0554  3000               	movlw	0
  1417  0555  1BA7               	btfsc	___xxtofl@val+1,7
  1418  0556  30FF               	movlw	255
  1419  0557  00A8               	movwf	___xxtofl@val+2
  1420  0558  00A9               	movwf	___xxtofl@val+3
  1421  0559  3001               	movlw	1
  1422  055A  120A  118A  25A3  120A  118A  	fcall	___xxtofl
  1423  055F  1283               	bcf	3,5	;RP0=0, select bank0
  1424  0560  1303               	bcf	3,6	;RP1=0, select bank0
  1425  0561  0829               	movf	?___xxtofl+3,w
  1426  0562  00B7               	movwf	___flsub@a+3
  1427  0563  0828               	movf	?___xxtofl+2,w
  1428  0564  00B6               	movwf	___flsub@a+2
  1429  0565  0827               	movf	?___xxtofl+1,w
  1430  0566  00B5               	movwf	___flsub@a+1
  1431  0567  0826               	movf	?___xxtofl,w
  1432  0568  00B4               	movwf	___flsub@a
  1433  0569  084F               	movf	_valor+3,w
  1434  056A  00BB               	movwf	___flsub@b+3
  1435  056B  084E               	movf	_valor+2,w
  1436  056C  00BA               	movwf	___flsub@b+2
  1437  056D  084D               	movf	_valor+1,w
  1438  056E  00B9               	movwf	___flsub@b+1
  1439  056F  084C               	movf	_valor,w
  1440  0570  00B8               	movwf	___flsub@b
  1441  0571  120A  158A  277E  120A  118A  	fcall	___flsub
  1442  0576  1283               	bcf	3,5	;RP0=0, select bank0
  1443  0577  1303               	bcf	3,6	;RP1=0, select bank0
  1444  0578  0837               	movf	?___flsub+3,w
  1445  0579  00CF               	movwf	_valor+3
  1446  057A  0836               	movf	?___flsub+2,w
  1447  057B  00CE               	movwf	_valor+2
  1448  057C  0835               	movf	?___flsub+1,w
  1449  057D  00CD               	movwf	_valor+1
  1450  057E  0834               	movf	?___flsub,w
  1451  057F  00CC               	movwf	_valor
  1452                           
  1453                           ;MainL5.c: 206:     unidades = (valor);
  1454  0580  084F               	movf	_valor+3,w
  1455  0581  00BD               	movwf	___fltol@f1+3
  1456  0582  084E               	movf	_valor+2,w
  1457  0583  00BC               	movwf	___fltol@f1+2
  1458  0584  084D               	movf	_valor+1,w
  1459  0585  00BB               	movwf	___fltol@f1+1
  1460  0586  084C               	movf	_valor,w
  1461  0587  00BA               	movwf	___fltol@f1
  1462  0588  120A  118A  270C  120A  118A  	fcall	___fltol
  1463  058D  1283               	bcf	3,5	;RP0=0, select bank0
  1464  058E  1303               	bcf	3,6	;RP1=0, select bank0
  1465  058F  083A               	movf	?___fltol,w
  1466  0590  00C5               	movwf	??_decimal
  1467  0591  0845               	movf	??_decimal,w
  1468  0592  00D0               	movwf	_unidades
  1469  0593                     l2102:
  1470                           
  1471                           ;MainL5.c: 210:     centenas = centenas + 48;
  1472  0593  0879               	movf	_centenas,w
  1473  0594  3E30               	addlw	48
  1474  0595  00C5               	movwf	??_decimal
  1475  0596  0845               	movf	??_decimal,w
  1476  0597  00F9               	movwf	_centenas
  1477  0598                     l2104:
  1478                           
  1479                           ;MainL5.c: 211:     decenas = decenas + 48;
  1480  0598  087A               	movf	_decenas,w
  1481  0599  3E30               	addlw	48
  1482  059A  00C5               	movwf	??_decimal
  1483  059B  0845               	movf	??_decimal,w
  1484  059C  00FA               	movwf	_decenas
  1485  059D                     l2106:
  1486                           
  1487                           ;MainL5.c: 212:     unidades = unidades + 48;
  1488  059D  0850               	movf	_unidades,w
  1489  059E  3E30               	addlw	48
  1490  059F  00C5               	movwf	??_decimal
  1491  05A0  0845               	movf	??_decimal,w
  1492  05A1  00D0               	movwf	_unidades
  1493  05A2                     l238:
  1494  05A2  0008               	return
  1495  05A3                     __end_of_decimal:
  1496                           
  1497                           	psect	text6
  1498  05A3                     __ptext6:	
  1499 ;; *************** function ___xxtofl *****************
  1500 ;; Defined at:
  1501 ;;		line 10 in file "E:\Microchip\XC8\pic\sources\c90\common\xxtofl.c"
  1502 ;; Parameters:    Size  Location     Type
  1503 ;;  sign            1    wreg     unsigned char 
  1504 ;;  val             4    6[BANK0 ] long 
  1505 ;; Auto vars:     Size  Location     Type
  1506 ;;  sign            1   14[BANK0 ] unsigned char 
  1507 ;;  arg             4   16[BANK0 ] unsigned long 
  1508 ;;  exp             1   15[BANK0 ] unsigned char 
  1509 ;; Return value:  Size  Location     Type
  1510 ;;                  4    6[BANK0 ] unsigned char 
  1511 ;; Registers used:
  1512 ;;		wreg, status,2, status,0
  1513 ;; Tracked objects:
  1514 ;;		On entry : 0/0
  1515 ;;		On exit  : 0/0
  1516 ;;		Unchanged: 0/0
  1517 ;; Data sizes:     COMMON   BANK0   BANK1   BANK3   BANK2
  1518 ;;      Params:         0       4       0       0       0
  1519 ;;      Locals:         0       6       0       0       0
  1520 ;;      Temps:          0       4       0       0       0
  1521 ;;      Totals:         0      14       0       0       0
  1522 ;;Total ram usage:       14 bytes
  1523 ;; Hardware stack levels used: 1
  1524 ;; Hardware stack levels required when called: 2
  1525 ;; This function calls:
  1526 ;;		Nothing
  1527 ;; This function is called by:
  1528 ;;		_decimal
  1529 ;; This function uses a non-reentrant model
  1530 ;;
  1531                           
  1532                           
  1533                           ;psect for function ___xxtofl
  1534  05A3                     ___xxtofl:
  1535                           
  1536                           ;incstack = 0
  1537                           ; Regs used in ___xxtofl: [wreg+status,2+status,0]
  1538                           ;___xxtofl@sign stored from wreg
  1539  05A3  1283               	bcf	3,5	;RP0=0, select bank0
  1540  05A4  1303               	bcf	3,6	;RP1=0, select bank0
  1541  05A5  00AE               	movwf	___xxtofl@sign
  1542  05A6                     l2014:
  1543  05A6  082E               	movf	___xxtofl@sign,w
  1544  05A7  1903               	btfsc	3,2
  1545  05A8  2DAA               	goto	u2241
  1546  05A9  2DAB               	goto	u2240
  1547  05AA                     u2241:
  1548  05AA  2DBF               	goto	l2020
  1549  05AB                     u2240:
  1550  05AB                     l2016:
  1551  05AB  1FA9               	btfss	___xxtofl@val+3,7
  1552  05AC  2DAE               	goto	u2251
  1553  05AD  2DAF               	goto	u2250
  1554  05AE                     u2251:
  1555  05AE  2DBF               	goto	l2020
  1556  05AF                     u2250:
  1557  05AF                     l2018:
  1558  05AF  0926               	comf	___xxtofl@val,w
  1559  05B0  00B0               	movwf	___xxtofl@arg
  1560  05B1  0927               	comf	___xxtofl@val+1,w
  1561  05B2  00B1               	movwf	___xxtofl@arg+1
  1562  05B3  0928               	comf	___xxtofl@val+2,w
  1563  05B4  00B2               	movwf	___xxtofl@arg+2
  1564  05B5  0929               	comf	___xxtofl@val+3,w
  1565  05B6  00B3               	movwf	___xxtofl@arg+3
  1566  05B7  0AB0               	incf	___xxtofl@arg,f
  1567  05B8  1903               	skipnz
  1568  05B9  0AB1               	incf	___xxtofl@arg+1,f
  1569  05BA  1903               	skipnz
  1570  05BB  0AB2               	incf	___xxtofl@arg+2,f
  1571  05BC  1903               	skipnz
  1572  05BD  0AB3               	incf	___xxtofl@arg+3,f
  1573  05BE  2DC7               	goto	l757
  1574  05BF                     l2020:
  1575  05BF  0829               	movf	___xxtofl@val+3,w
  1576  05C0  00B3               	movwf	___xxtofl@arg+3
  1577  05C1  0828               	movf	___xxtofl@val+2,w
  1578  05C2  00B2               	movwf	___xxtofl@arg+2
  1579  05C3  0827               	movf	___xxtofl@val+1,w
  1580  05C4  00B1               	movwf	___xxtofl@arg+1
  1581  05C5  0826               	movf	___xxtofl@val,w
  1582  05C6  00B0               	movwf	___xxtofl@arg
  1583  05C7                     l757:
  1584  05C7  0829               	movf	___xxtofl@val+3,w
  1585  05C8  0428               	iorwf	___xxtofl@val+2,w
  1586  05C9  0427               	iorwf	___xxtofl@val+1,w
  1587  05CA  0426               	iorwf	___xxtofl@val,w
  1588  05CB  1D03               	skipz
  1589  05CC  2DCE               	goto	u2261
  1590  05CD  2DCF               	goto	u2260
  1591  05CE                     u2261:
  1592  05CE  2DD8               	goto	l2026
  1593  05CF                     u2260:
  1594  05CF                     l2022:
  1595  05CF  3000               	movlw	0
  1596  05D0  00A9               	movwf	?___xxtofl+3
  1597  05D1  3000               	movlw	0
  1598  05D2  00A8               	movwf	?___xxtofl+2
  1599  05D3  3000               	movlw	0
  1600  05D4  00A7               	movwf	?___xxtofl+1
  1601  05D5  3000               	movlw	0
  1602  05D6  00A6               	movwf	?___xxtofl
  1603  05D7  2E5E               	goto	l759
  1604  05D8                     l2026:
  1605  05D8  3096               	movlw	150
  1606  05D9  00AA               	movwf	??___xxtofl
  1607  05DA  082A               	movf	??___xxtofl,w
  1608  05DB  00AF               	movwf	___xxtofl@exp
  1609  05DC  2DEA               	goto	l2030
  1610  05DD                     l2028:
  1611  05DD  3001               	movlw	1
  1612  05DE  00AA               	movwf	??___xxtofl
  1613  05DF  082A               	movf	??___xxtofl,w
  1614  05E0  07AF               	addwf	___xxtofl@exp,f
  1615  05E1  3001               	movlw	1
  1616  05E2                     u2275:
  1617  05E2  1003               	clrc
  1618  05E3  0CB3               	rrf	___xxtofl@arg+3,f
  1619  05E4  0CB2               	rrf	___xxtofl@arg+2,f
  1620  05E5  0CB1               	rrf	___xxtofl@arg+1,f
  1621  05E6  0CB0               	rrf	___xxtofl@arg,f
  1622  05E7  3EFF               	addlw	-1
  1623  05E8  1D03               	skipz
  1624  05E9  2DE2               	goto	u2275
  1625  05EA                     l2030:
  1626  05EA  30FE               	movlw	254
  1627  05EB  0533               	andwf	___xxtofl@arg+3,w
  1628  05EC  1D03               	btfss	3,2
  1629  05ED  2DEF               	goto	u2281
  1630  05EE  2DF0               	goto	u2280
  1631  05EF                     u2281:
  1632  05EF  2DDD               	goto	l2028
  1633  05F0                     u2280:
  1634  05F0  2E0C               	goto	l763
  1635  05F1                     l2032:
  1636  05F1  3001               	movlw	1
  1637  05F2  00AA               	movwf	??___xxtofl
  1638  05F3  082A               	movf	??___xxtofl,w
  1639  05F4  07AF               	addwf	___xxtofl@exp,f
  1640  05F5                     l2034:
  1641  05F5  3001               	movlw	1
  1642  05F6  07B0               	addwf	___xxtofl@arg,f
  1643  05F7  3000               	movlw	0
  1644  05F8  1803               	skipnc
  1645  05F9  3001               	movlw	1
  1646  05FA  07B1               	addwf	___xxtofl@arg+1,f
  1647  05FB  3000               	movlw	0
  1648  05FC  1803               	skipnc
  1649  05FD  3001               	movlw	1
  1650  05FE  07B2               	addwf	___xxtofl@arg+2,f
  1651  05FF  3000               	movlw	0
  1652  0600  1803               	skipnc
  1653  0601  3001               	movlw	1
  1654  0602  07B3               	addwf	___xxtofl@arg+3,f
  1655  0603                     l2036:
  1656  0603  3001               	movlw	1
  1657  0604                     u2295:
  1658  0604  1003               	clrc
  1659  0605  0CB3               	rrf	___xxtofl@arg+3,f
  1660  0606  0CB2               	rrf	___xxtofl@arg+2,f
  1661  0607  0CB1               	rrf	___xxtofl@arg+1,f
  1662  0608  0CB0               	rrf	___xxtofl@arg,f
  1663  0609  3EFF               	addlw	-1
  1664  060A  1D03               	skipz
  1665  060B  2E04               	goto	u2295
  1666  060C                     l763:
  1667  060C  30FF               	movlw	255
  1668  060D  0533               	andwf	___xxtofl@arg+3,w
  1669  060E  1D03               	btfss	3,2
  1670  060F  2E11               	goto	u2301
  1671  0610  2E12               	goto	u2300
  1672  0611                     u2301:
  1673  0611  2DF1               	goto	l2032
  1674  0612                     u2300:
  1675  0612  2E1E               	goto	l2040
  1676  0613                     l2038:
  1677  0613  3001               	movlw	1
  1678  0614  02AF               	subwf	___xxtofl@exp,f
  1679  0615  3001               	movlw	1
  1680  0616  00AA               	movwf	??___xxtofl
  1681  0617                     u2315:
  1682  0617  1003               	clrc
  1683  0618  0DB0               	rlf	___xxtofl@arg,f
  1684  0619  0DB1               	rlf	___xxtofl@arg+1,f
  1685  061A  0DB2               	rlf	___xxtofl@arg+2,f
  1686  061B  0DB3               	rlf	___xxtofl@arg+3,f
  1687  061C  0BAA               	decfsz	??___xxtofl,f
  1688  061D  2E17               	goto	u2315
  1689  061E                     l2040:
  1690  061E  1BB2               	btfsc	___xxtofl@arg+2,7
  1691  061F  2E21               	goto	u2321
  1692  0620  2E22               	goto	u2320
  1693  0621                     u2321:
  1694  0621  2E28               	goto	l770
  1695  0622                     u2320:
  1696  0622                     l2042:
  1697  0622  3002               	movlw	2
  1698  0623  022F               	subwf	___xxtofl@exp,w
  1699  0624  1803               	skipnc
  1700  0625  2E27               	goto	u2331
  1701  0626  2E28               	goto	u2330
  1702  0627                     u2331:
  1703  0627  2E13               	goto	l2038
  1704  0628                     u2330:
  1705  0628                     l770:
  1706  0628  182F               	btfsc	___xxtofl@exp,0
  1707  0629  2E2B               	goto	u2341
  1708  062A  2E2C               	goto	u2340
  1709  062B                     u2341:
  1710  062B  2E34               	goto	l771
  1711  062C                     u2340:
  1712  062C                     l2044:
  1713  062C  30FF               	movlw	255
  1714  062D  05B0               	andwf	___xxtofl@arg,f
  1715  062E  30FF               	movlw	255
  1716  062F  05B1               	andwf	___xxtofl@arg+1,f
  1717  0630  307F               	movlw	127
  1718  0631  05B2               	andwf	___xxtofl@arg+2,f
  1719  0632  30FF               	movlw	255
  1720  0633  05B3               	andwf	___xxtofl@arg+3,f
  1721  0634                     l771:
  1722  0634  1003               	clrc
  1723  0635  0CAF               	rrf	___xxtofl@exp,f
  1724  0636                     l2046:
  1725  0636  082F               	movf	___xxtofl@exp,w
  1726  0637  00AA               	movwf	??___xxtofl
  1727  0638  01AB               	clrf	??___xxtofl+1
  1728  0639  01AC               	clrf	??___xxtofl+2
  1729  063A  01AD               	clrf	??___xxtofl+3
  1730  063B  3018               	movlw	24
  1731  063C                     u2355:
  1732  063C  1003               	clrc
  1733  063D  0DAA               	rlf	??___xxtofl,f
  1734  063E  0DAB               	rlf	??___xxtofl+1,f
  1735  063F  0DAC               	rlf	??___xxtofl+2,f
  1736  0640  0DAD               	rlf	??___xxtofl+3,f
  1737  0641                     u2350:
  1738  0641  3EFF               	addlw	-1
  1739  0642  1D03               	skipz
  1740  0643  2E3C               	goto	u2355
  1741  0644  082A               	movf	??___xxtofl,w
  1742  0645  04B0               	iorwf	___xxtofl@arg,f
  1743  0646  082B               	movf	??___xxtofl+1,w
  1744  0647  04B1               	iorwf	___xxtofl@arg+1,f
  1745  0648  082C               	movf	??___xxtofl+2,w
  1746  0649  04B2               	iorwf	___xxtofl@arg+2,f
  1747  064A  082D               	movf	??___xxtofl+3,w
  1748  064B  04B3               	iorwf	___xxtofl@arg+3,f
  1749  064C                     l2048:
  1750  064C  082E               	movf	___xxtofl@sign,w
  1751  064D  1903               	btfsc	3,2
  1752  064E  2E50               	goto	u2361
  1753  064F  2E51               	goto	u2360
  1754  0650                     u2361:
  1755  0650  2E56               	goto	l2054
  1756  0651                     u2360:
  1757  0651                     l2050:
  1758  0651  1FA9               	btfss	___xxtofl@val+3,7
  1759  0652  2E54               	goto	u2371
  1760  0653  2E55               	goto	u2370
  1761  0654                     u2371:
  1762  0654  2E56               	goto	l2054
  1763  0655                     u2370:
  1764  0655                     l2052:
  1765  0655  17B3               	bsf	___xxtofl@arg+3,7
  1766  0656                     l2054:
  1767  0656  0833               	movf	___xxtofl@arg+3,w
  1768  0657  00A9               	movwf	?___xxtofl+3
  1769  0658  0832               	movf	___xxtofl@arg+2,w
  1770  0659  00A8               	movwf	?___xxtofl+2
  1771  065A  0831               	movf	___xxtofl@arg+1,w
  1772  065B  00A7               	movwf	?___xxtofl+1
  1773  065C  0830               	movf	___xxtofl@arg,w
  1774  065D  00A6               	movwf	?___xxtofl
  1775  065E                     l759:
  1776  065E  0008               	return
  1777  065F                     __end_of___xxtofl:
  1778                           
  1779                           	psect	text7
  1780  0FA2                     __ptext7:	
  1781 ;; *************** function ___wmul *****************
  1782 ;; Defined at:
  1783 ;;		line 15 in file "E:\Microchip\XC8\pic\sources\c90\common\Umul16.c"
  1784 ;; Parameters:    Size  Location     Type
  1785 ;;  multiplier      2    0[BANK0 ] unsigned int 
  1786 ;;  multiplicand    2    2[BANK0 ] unsigned int 
  1787 ;; Auto vars:     Size  Location     Type
  1788 ;;  product         2    4[BANK0 ] unsigned int 
  1789 ;; Return value:  Size  Location     Type
  1790 ;;                  2    0[BANK0 ] unsigned int 
  1791 ;; Registers used:
  1792 ;;		wreg, status,2, status,0
  1793 ;; Tracked objects:
  1794 ;;		On entry : 0/0
  1795 ;;		On exit  : 0/0
  1796 ;;		Unchanged: 0/0
  1797 ;; Data sizes:     COMMON   BANK0   BANK1   BANK3   BANK2
  1798 ;;      Params:         0       4       0       0       0
  1799 ;;      Locals:         0       2       0       0       0
  1800 ;;      Temps:          0       0       0       0       0
  1801 ;;      Totals:         0       6       0       0       0
  1802 ;;Total ram usage:        6 bytes
  1803 ;; Hardware stack levels used: 1
  1804 ;; Hardware stack levels required when called: 2
  1805 ;; This function calls:
  1806 ;;		Nothing
  1807 ;; This function is called by:
  1808 ;;		_decimal
  1809 ;; This function uses a non-reentrant model
  1810 ;;
  1811                           
  1812                           
  1813                           ;psect for function ___wmul
  1814  0FA2                     ___wmul:
  1815  0FA2                     l1816:	
  1816                           ;incstack = 0
  1817                           ; Regs used in ___wmul: [wreg+status,2+status,0]
  1818                           
  1819  0FA2  1283               	bcf	3,5	;RP0=0, select bank0
  1820  0FA3  1303               	bcf	3,6	;RP1=0, select bank0
  1821  0FA4  01A4               	clrf	___wmul@product
  1822  0FA5  01A5               	clrf	___wmul@product+1
  1823  0FA6                     l1818:
  1824  0FA6  1C20               	btfss	___wmul@multiplier,0
  1825  0FA7  2FA9               	goto	u1811
  1826  0FA8  2FAA               	goto	u1810
  1827  0FA9                     u1811:
  1828  0FA9  2FB0               	goto	l324
  1829  0FAA                     u1810:
  1830  0FAA                     l1820:
  1831  0FAA  0822               	movf	___wmul@multiplicand,w
  1832  0FAB  07A4               	addwf	___wmul@product,f
  1833  0FAC  1803               	skipnc
  1834  0FAD  0AA5               	incf	___wmul@product+1,f
  1835  0FAE  0823               	movf	___wmul@multiplicand+1,w
  1836  0FAF  07A5               	addwf	___wmul@product+1,f
  1837  0FB0                     l324:
  1838  0FB0  3001               	movlw	1
  1839  0FB1                     u1825:
  1840  0FB1  1003               	clrc
  1841  0FB2  0DA2               	rlf	___wmul@multiplicand,f
  1842  0FB3  0DA3               	rlf	___wmul@multiplicand+1,f
  1843  0FB4  3EFF               	addlw	-1
  1844  0FB5  1D03               	skipz
  1845  0FB6  2FB1               	goto	u1825
  1846  0FB7                     l1822:
  1847  0FB7  3001               	movlw	1
  1848  0FB8                     u1835:
  1849  0FB8  1003               	clrc
  1850  0FB9  0CA1               	rrf	___wmul@multiplier+1,f
  1851  0FBA  0CA0               	rrf	___wmul@multiplier,f
  1852  0FBB  3EFF               	addlw	-1
  1853  0FBC  1D03               	skipz
  1854  0FBD  2FB8               	goto	u1835
  1855  0FBE                     l1824:
  1856  0FBE  0820               	movf	___wmul@multiplier,w
  1857  0FBF  0421               	iorwf	___wmul@multiplier+1,w
  1858  0FC0  1D03               	btfss	3,2
  1859  0FC1  2FC3               	goto	u1841
  1860  0FC2  2FC4               	goto	u1840
  1861  0FC3                     u1841:
  1862  0FC3  2FA6               	goto	l1818
  1863  0FC4                     u1840:
  1864  0FC4                     l1826:
  1865  0FC4  0825               	movf	___wmul@product+1,w
  1866  0FC5  00A1               	movwf	?___wmul+1
  1867  0FC6  0824               	movf	___wmul@product,w
  1868  0FC7  00A0               	movwf	?___wmul
  1869  0FC8                     l326:
  1870  0FC8  0008               	return
  1871  0FC9                     __end_of___wmul:
  1872                           
  1873                           	psect	text8
  1874  070C                     __ptext8:	
  1875 ;; *************** function ___fltol *****************
  1876 ;; Defined at:
  1877 ;;		line 43 in file "E:\Microchip\XC8\pic\sources\c90\common\fltol.c"
  1878 ;; Parameters:    Size  Location     Type
  1879 ;;  f1              4   26[BANK0 ] unsigned int 
  1880 ;; Auto vars:     Size  Location     Type
  1881 ;;  exp1            1   36[BANK0 ] unsigned char 
  1882 ;;  sign1           1   35[BANK0 ] unsigned char 
  1883 ;; Return value:  Size  Location     Type
  1884 ;;                  4   26[BANK0 ] long 
  1885 ;; Registers used:
  1886 ;;		wreg, status,2, status,0
  1887 ;; Tracked objects:
  1888 ;;		On entry : 0/0
  1889 ;;		On exit  : 0/0
  1890 ;;		Unchanged: 0/0
  1891 ;; Data sizes:     COMMON   BANK0   BANK1   BANK3   BANK2
  1892 ;;      Params:         0       4       0       0       0
  1893 ;;      Locals:         0       2       0       0       0
  1894 ;;      Temps:          0       5       0       0       0
  1895 ;;      Totals:         0      11       0       0       0
  1896 ;;Total ram usage:       11 bytes
  1897 ;; Hardware stack levels used: 1
  1898 ;; Hardware stack levels required when called: 2
  1899 ;; This function calls:
  1900 ;;		Nothing
  1901 ;; This function is called by:
  1902 ;;		_decimal
  1903 ;; This function uses a non-reentrant model
  1904 ;;
  1905                           
  1906                           
  1907                           ;psect for function ___fltol
  1908  070C                     ___fltol:
  1909  070C                     l1830:	
  1910                           ;incstack = 0
  1911                           ; Regs used in ___fltol: [wreg+status,2+status,0]
  1912                           
  1913  070C  1003               	clrc
  1914  070D  1283               	bcf	3,5	;RP0=0, select bank0
  1915  070E  1303               	bcf	3,6	;RP1=0, select bank0
  1916  070F  0D3C               	rlf	___fltol@f1+2,w
  1917  0710  0D3D               	rlf	___fltol@f1+3,w
  1918  0711  00BE               	movwf	??___fltol
  1919  0712  083E               	movf	??___fltol,w
  1920  0713  00C4               	movwf	___fltol@exp1
  1921  0714  0844               	movf	___fltol@exp1,w
  1922  0715  1D03               	btfss	3,2
  1923  0716  2F18               	goto	u1851
  1924  0717  2F19               	goto	u1850
  1925  0718                     u1851:
  1926  0718  2F22               	goto	l1836
  1927  0719                     u1850:
  1928  0719                     l1832:
  1929  0719  3000               	movlw	0
  1930  071A  00BD               	movwf	?___fltol+3
  1931  071B  3000               	movlw	0
  1932  071C  00BC               	movwf	?___fltol+2
  1933  071D  3000               	movlw	0
  1934  071E  00BB               	movwf	?___fltol+1
  1935  071F  3000               	movlw	0
  1936  0720  00BA               	movwf	?___fltol
  1937  0721  2F87               	goto	l510
  1938  0722                     l1836:
  1939  0722  083A               	movf	___fltol@f1,w
  1940  0723  00BE               	movwf	??___fltol
  1941  0724  083B               	movf	___fltol@f1+1,w
  1942  0725  00BF               	movwf	??___fltol+1
  1943  0726  083C               	movf	___fltol@f1+2,w
  1944  0727  00C0               	movwf	??___fltol+2
  1945  0728  083D               	movf	___fltol@f1+3,w
  1946  0729  00C1               	movwf	??___fltol+3
  1947  072A  301F               	movlw	31
  1948  072B                     u1865:
  1949  072B  1003               	clrc
  1950  072C  0CC1               	rrf	??___fltol+3,f
  1951  072D  0CC0               	rrf	??___fltol+2,f
  1952  072E  0CBF               	rrf	??___fltol+1,f
  1953  072F  0CBE               	rrf	??___fltol,f
  1954  0730                     u1860:
  1955  0730  3EFF               	addlw	-1
  1956  0731  1D03               	skipz
  1957  0732  2F2B               	goto	u1865
  1958  0733  083E               	movf	??___fltol,w
  1959  0734  00C2               	movwf	??___fltol+4
  1960  0735  0842               	movf	??___fltol+4,w
  1961  0736  00C3               	movwf	___fltol@sign1
  1962  0737                     l1838:
  1963  0737  17BC               	bsf	___fltol@f1+2,7
  1964  0738                     l1840:
  1965  0738  30FF               	movlw	255
  1966  0739  05BA               	andwf	___fltol@f1,f
  1967  073A  30FF               	movlw	255
  1968  073B  05BB               	andwf	___fltol@f1+1,f
  1969  073C  30FF               	movlw	255
  1970  073D  05BC               	andwf	___fltol@f1+2,f
  1971  073E  3000               	movlw	0
  1972  073F  05BD               	andwf	___fltol@f1+3,f
  1973  0740                     l1842:
  1974  0740  3096               	movlw	150
  1975  0741  02C4               	subwf	___fltol@exp1,f
  1976  0742                     l1844:
  1977  0742  1FC4               	btfss	___fltol@exp1,7
  1978  0743  2F45               	goto	u1871
  1979  0744  2F46               	goto	u1870
  1980  0745                     u1871:
  1981  0745  2F60               	goto	l1854
  1982  0746                     u1870:
  1983  0746                     l1846:
  1984  0746  0844               	movf	___fltol@exp1,w
  1985  0747  3A80               	xorlw	128
  1986  0748  3E97               	addlw	151
  1987  0749  1803               	skipnc
  1988  074A  2F4C               	goto	u1881
  1989  074B  2F4D               	goto	u1880
  1990  074C                     u1881:
  1991  074C  2F4E               	goto	l1852
  1992  074D                     u1880:
  1993  074D  2F19               	goto	l1832
  1994  074E                     l1852:
  1995  074E  3001               	movlw	1
  1996  074F                     u1895:
  1997  074F  1003               	clrc
  1998  0750  0CBD               	rrf	___fltol@f1+3,f
  1999  0751  0CBC               	rrf	___fltol@f1+2,f
  2000  0752  0CBB               	rrf	___fltol@f1+1,f
  2001  0753  0CBA               	rrf	___fltol@f1,f
  2002  0754  3EFF               	addlw	-1
  2003  0755  1D03               	skipz
  2004  0756  2F4F               	goto	u1895
  2005  0757  3001               	movlw	1
  2006  0758  00BE               	movwf	??___fltol
  2007  0759  083E               	movf	??___fltol,w
  2008  075A  07C4               	addwf	___fltol@exp1,f
  2009  075B  1D03               	btfss	3,2
  2010  075C  2F5E               	goto	u1901
  2011  075D  2F5F               	goto	u1900
  2012  075E                     u1901:
  2013  075E  2F4E               	goto	l1852
  2014  075F                     u1900:
  2015  075F  2F77               	goto	l1862
  2016  0760                     l1854:
  2017  0760  3020               	movlw	32
  2018  0761  0244               	subwf	___fltol@exp1,w
  2019  0762  1C03               	skipc
  2020  0763  2F65               	goto	u1911
  2021  0764  2F66               	goto	u1910
  2022  0765                     u1911:
  2023  0765  2F72               	goto	l517
  2024  0766                     u1910:
  2025  0766  2F19               	goto	l1832
  2026  0767                     l1860:
  2027  0767  3001               	movlw	1
  2028  0768  00BE               	movwf	??___fltol
  2029  0769                     u1925:
  2030  0769  1003               	clrc
  2031  076A  0DBA               	rlf	___fltol@f1,f
  2032  076B  0DBB               	rlf	___fltol@f1+1,f
  2033  076C  0DBC               	rlf	___fltol@f1+2,f
  2034  076D  0DBD               	rlf	___fltol@f1+3,f
  2035  076E  0BBE               	decfsz	??___fltol,f
  2036  076F  2F69               	goto	u1925
  2037  0770  3001               	movlw	1
  2038  0771  02C4               	subwf	___fltol@exp1,f
  2039  0772                     l517:
  2040  0772  0844               	movf	___fltol@exp1,w
  2041  0773  1D03               	btfss	3,2
  2042  0774  2F76               	goto	u1931
  2043  0775  2F77               	goto	u1930
  2044  0776                     u1931:
  2045  0776  2F67               	goto	l1860
  2046  0777                     u1930:
  2047  0777                     l1862:
  2048  0777  0843               	movf	___fltol@sign1,w
  2049  0778  1903               	btfsc	3,2
  2050  0779  2F7B               	goto	u1941
  2051  077A  2F7C               	goto	u1940
  2052  077B                     u1941:
  2053  077B  2F87               	goto	l520
  2054  077C                     u1940:
  2055  077C                     l1864:
  2056  077C  09BA               	comf	___fltol@f1,f
  2057  077D  09BB               	comf	___fltol@f1+1,f
  2058  077E  09BC               	comf	___fltol@f1+2,f
  2059  077F  09BD               	comf	___fltol@f1+3,f
  2060  0780  0ABA               	incf	___fltol@f1,f
  2061  0781  1903               	skipnz
  2062  0782  0ABB               	incf	___fltol@f1+1,f
  2063  0783  1903               	skipnz
  2064  0784  0ABC               	incf	___fltol@f1+2,f
  2065  0785  1903               	skipnz
  2066  0786  0ABD               	incf	___fltol@f1+3,f
  2067  0787                     l520:
  2068  0787                     l510:
  2069  0787  0008               	return
  2070  0788                     __end_of___fltol:
  2071                           
  2072                           	psect	text9
  2073  0F7E                     __ptext9:	
  2074 ;; *************** function ___flsub *****************
  2075 ;; Defined at:
  2076 ;;		line 242 in file "E:\Microchip\XC8\pic\sources\c90\common\sprcadd.c"
  2077 ;; Parameters:    Size  Location     Type
  2078 ;;  a               4   20[BANK0 ] long 
  2079 ;;  b               4   24[BANK0 ] long 
  2080 ;; Auto vars:     Size  Location     Type
  2081 ;;		None
  2082 ;; Return value:  Size  Location     Type
  2083 ;;                  4   20[BANK0 ] long 
  2084 ;; Registers used:
  2085 ;;		wreg, status,2, status,0, btemp+1, pclath, cstack
  2086 ;; Tracked objects:
  2087 ;;		On entry : 0/0
  2088 ;;		On exit  : 0/0
  2089 ;;		Unchanged: 0/0
  2090 ;; Data sizes:     COMMON   BANK0   BANK1   BANK3   BANK2
  2091 ;;      Params:         0       8       0       0       0
  2092 ;;      Locals:         0       0       0       0       0
  2093 ;;      Temps:          0       0       0       0       0
  2094 ;;      Totals:         0       8       0       0       0
  2095 ;;Total ram usage:        8 bytes
  2096 ;; Hardware stack levels used: 1
  2097 ;; Hardware stack levels required when called: 3
  2098 ;; This function calls:
  2099 ;;		___fladd
  2100 ;; This function is called by:
  2101 ;;		_decimal
  2102 ;; This function uses a non-reentrant model
  2103 ;;
  2104                           
  2105                           
  2106                           ;psect for function ___flsub
  2107  0F7E                     ___flsub:
  2108  0F7E                     l1866:	
  2109                           ;incstack = 0
  2110                           ; Regs used in ___flsub: [wreg+status,2+status,0+btemp+1+pclath+cstack]
  2111                           
  2112  0F7E  3080               	movlw	128
  2113  0F7F  1283               	bcf	3,5	;RP0=0, select bank0
  2114  0F80  1303               	bcf	3,6	;RP1=0, select bank0
  2115  0F81  06B7               	xorwf	___flsub@a+3,f
  2116  0F82                     l1868:
  2117  0F82  083B               	movf	___flsub@b+3,w
  2118  0F83  00A3               	movwf	___fladd@b+3
  2119  0F84  083A               	movf	___flsub@b+2,w
  2120  0F85  00A2               	movwf	___fladd@b+2
  2121  0F86  0839               	movf	___flsub@b+1,w
  2122  0F87  00A1               	movwf	___fladd@b+1
  2123  0F88  0838               	movf	___flsub@b,w
  2124  0F89  00A0               	movwf	___fladd@b
  2125  0F8A  0837               	movf	___flsub@a+3,w
  2126  0F8B  00A7               	movwf	___fladd@a+3
  2127  0F8C  0836               	movf	___flsub@a+2,w
  2128  0F8D  00A6               	movwf	___fladd@a+2
  2129  0F8E  0835               	movf	___flsub@a+1,w
  2130  0F8F  00A5               	movwf	___fladd@a+1
  2131  0F90  0834               	movf	___flsub@a,w
  2132  0F91  00A4               	movwf	___fladd@a
  2133  0F92  120A  118A  2023  120A  158A  	fcall	___fladd
  2134  0F97  1283               	bcf	3,5	;RP0=0, select bank0
  2135  0F98  1303               	bcf	3,6	;RP1=0, select bank0
  2136  0F99  0823               	movf	?___fladd+3,w
  2137  0F9A  00B7               	movwf	?___flsub+3
  2138  0F9B  0822               	movf	?___fladd+2,w
  2139  0F9C  00B6               	movwf	?___flsub+2
  2140  0F9D  0821               	movf	?___fladd+1,w
  2141  0F9E  00B5               	movwf	?___flsub+1
  2142  0F9F  0820               	movf	?___fladd,w
  2143  0FA0  00B4               	movwf	?___flsub
  2144  0FA1                     l663:
  2145  0FA1  0008               	return
  2146  0FA2                     __end_of___flsub:
  2147                           
  2148                           	psect	text10
  2149  0023                     __ptext10:	
  2150 ;; *************** function ___fladd *****************
  2151 ;; Defined at:
  2152 ;;		line 10 in file "E:\Microchip\XC8\pic\sources\c90\common\sprcadd.c"
  2153 ;; Parameters:    Size  Location     Type
  2154 ;;  b               4    0[BANK0 ] long 
  2155 ;;  a               4    4[BANK0 ] long 
  2156 ;; Auto vars:     Size  Location     Type
  2157 ;;  grs             1   19[BANK0 ] unsigned char 
  2158 ;;  bexp            1   18[BANK0 ] unsigned char 
  2159 ;;  aexp            1   17[BANK0 ] unsigned char 
  2160 ;;  signs           1   16[BANK0 ] unsigned char 
  2161 ;; Return value:  Size  Location     Type
  2162 ;;                  4    0[BANK0 ] unsigned char 
  2163 ;; Registers used:
  2164 ;;		wreg, status,2, status,0, btemp+1
  2165 ;; Tracked objects:
  2166 ;;		On entry : 0/0
  2167 ;;		On exit  : 0/0
  2168 ;;		Unchanged: 0/0
  2169 ;; Data sizes:     COMMON   BANK0   BANK1   BANK3   BANK2
  2170 ;;      Params:         0       8       0       0       0
  2171 ;;      Locals:         0       4       0       0       0
  2172 ;;      Temps:          0       8       0       0       0
  2173 ;;      Totals:         0      20       0       0       0
  2174 ;;Total ram usage:       20 bytes
  2175 ;; Hardware stack levels used: 1
  2176 ;; Hardware stack levels required when called: 2
  2177 ;; This function calls:
  2178 ;;		Nothing
  2179 ;; This function is called by:
  2180 ;;		___flsub
  2181 ;; This function uses a non-reentrant model
  2182 ;;
  2183                           
  2184                           
  2185                           ;psect for function ___fladd
  2186  0023                     ___fladd:
  2187  0023                     l1598:	
  2188                           ;incstack = 0
  2189                           ; Regs used in ___fladd: [wreg+status,2+status,0+btemp+1]
  2190                           
  2191  0023  1283               	bcf	3,5	;RP0=0, select bank0
  2192  0024  1303               	bcf	3,6	;RP1=0, select bank0
  2193  0025  0823               	movf	___fladd@b+3,w
  2194  0026  3980               	andlw	128
  2195  0027  00A8               	movwf	??___fladd
  2196  0028  0828               	movf	??___fladd,w
  2197  0029  00B0               	movwf	___fladd@signs
  2198  002A                     l1600:
  2199  002A  0823               	movf	___fladd@b+3,w
  2200  002B  00A8               	movwf	??___fladd
  2201  002C  0728               	addwf	??___fladd,w
  2202  002D  00A9               	movwf	??___fladd+1
  2203  002E  0829               	movf	??___fladd+1,w
  2204  002F  00B2               	movwf	___fladd@bexp
  2205  0030                     l1602:
  2206  0030  1FA2               	btfss	___fladd@b+2,7
  2207  0031  2833               	goto	u1351
  2208  0032  2834               	goto	u1350
  2209  0033                     u1351:
  2210  0033  2835               	goto	l1606
  2211  0034                     u1350:
  2212  0034                     l1604:
  2213  0034  1432               	bsf	___fladd@bexp,0
  2214  0035                     l1606:
  2215  0035  0832               	movf	___fladd@bexp,w
  2216  0036  1903               	btfsc	3,2
  2217  0037  2839               	goto	u1361
  2218  0038  283A               	goto	u1360
  2219  0039                     u1361:
  2220  0039  284A               	goto	l1616
  2221  003A                     u1360:
  2222  003A                     l1608:
  2223  003A  0A32               	incf	___fladd@bexp,w
  2224  003B  1D03               	btfss	3,2
  2225  003C  283E               	goto	u1371
  2226  003D  283F               	goto	u1370
  2227  003E                     u1371:
  2228  003E  2847               	goto	l1612
  2229  003F                     u1370:
  2230  003F                     l1610:
  2231  003F  3000               	movlw	0
  2232  0040  00A3               	movwf	___fladd@b+3
  2233  0041  3000               	movlw	0
  2234  0042  00A2               	movwf	___fladd@b+2
  2235  0043  3000               	movlw	0
  2236  0044  00A1               	movwf	___fladd@b+1
  2237  0045  3000               	movlw	0
  2238  0046  00A0               	movwf	___fladd@b
  2239  0047                     l1612:
  2240  0047  17A2               	bsf	___fladd@b+2,7
  2241  0048                     l1614:
  2242  0048  01A3               	clrf	___fladd@b+3
  2243  0049  2852               	goto	l1618
  2244  004A                     l1616:
  2245  004A  3000               	movlw	0
  2246  004B  00A3               	movwf	___fladd@b+3
  2247  004C  3000               	movlw	0
  2248  004D  00A2               	movwf	___fladd@b+2
  2249  004E  3000               	movlw	0
  2250  004F  00A1               	movwf	___fladd@b+1
  2251  0050  3000               	movlw	0
  2252  0051  00A0               	movwf	___fladd@b
  2253  0052                     l1618:
  2254  0052  0827               	movf	___fladd@a+3,w
  2255  0053  3980               	andlw	128
  2256  0054  00A8               	movwf	??___fladd
  2257  0055  0828               	movf	??___fladd,w
  2258  0056  00B1               	movwf	___fladd@aexp
  2259  0057                     l1620:
  2260  0057  0831               	movf	___fladd@aexp,w
  2261  0058  0630               	xorwf	___fladd@signs,w
  2262  0059  1903               	skipnz
  2263  005A  285C               	goto	u1381
  2264  005B  285D               	goto	u1380
  2265  005C                     u1381:
  2266  005C  285E               	goto	l1624
  2267  005D                     u1380:
  2268  005D                     l1622:
  2269  005D  1730               	bsf	___fladd@signs,6
  2270  005E                     l1624:
  2271  005E  0827               	movf	___fladd@a+3,w
  2272  005F  00A8               	movwf	??___fladd
  2273  0060  0728               	addwf	??___fladd,w
  2274  0061  00A9               	movwf	??___fladd+1
  2275  0062  0829               	movf	??___fladd+1,w
  2276  0063  00B1               	movwf	___fladd@aexp
  2277  0064                     l1626:
  2278  0064  1FA6               	btfss	___fladd@a+2,7
  2279  0065  2867               	goto	u1391
  2280  0066  2868               	goto	u1390
  2281  0067                     u1391:
  2282  0067  2869               	goto	l1630
  2283  0068                     u1390:
  2284  0068                     l1628:
  2285  0068  1431               	bsf	___fladd@aexp,0
  2286  0069                     l1630:
  2287  0069  0831               	movf	___fladd@aexp,w
  2288  006A  1903               	btfsc	3,2
  2289  006B  286D               	goto	u1401
  2290  006C  286E               	goto	u1400
  2291  006D                     u1401:
  2292  006D  287E               	goto	l1640
  2293  006E                     u1400:
  2294  006E                     l1632:
  2295  006E  0A31               	incf	___fladd@aexp,w
  2296  006F  1D03               	btfss	3,2
  2297  0070  2872               	goto	u1411
  2298  0071  2873               	goto	u1410
  2299  0072                     u1411:
  2300  0072  287B               	goto	l1636
  2301  0073                     u1410:
  2302  0073                     l1634:
  2303  0073  3000               	movlw	0
  2304  0074  00A7               	movwf	___fladd@a+3
  2305  0075  3000               	movlw	0
  2306  0076  00A6               	movwf	___fladd@a+2
  2307  0077  3000               	movlw	0
  2308  0078  00A5               	movwf	___fladd@a+1
  2309  0079  3000               	movlw	0
  2310  007A  00A4               	movwf	___fladd@a
  2311  007B                     l1636:
  2312  007B  17A6               	bsf	___fladd@a+2,7
  2313  007C                     l1638:
  2314  007C  01A7               	clrf	___fladd@a+3
  2315  007D  2886               	goto	l617
  2316  007E                     l1640:
  2317  007E  3000               	movlw	0
  2318  007F  00A7               	movwf	___fladd@a+3
  2319  0080  3000               	movlw	0
  2320  0081  00A6               	movwf	___fladd@a+2
  2321  0082  3000               	movlw	0
  2322  0083  00A5               	movwf	___fladd@a+1
  2323  0084  3000               	movlw	0
  2324  0085  00A4               	movwf	___fladd@a
  2325  0086                     l617:
  2326  0086  0832               	movf	___fladd@bexp,w
  2327  0087  0231               	subwf	___fladd@aexp,w
  2328  0088  1803               	skipnc
  2329  0089  288B               	goto	u1421
  2330  008A  288C               	goto	u1420
  2331  008B                     u1421:
  2332  008B  28D0               	goto	l1676
  2333  008C                     u1420:
  2334  008C                     l1642:
  2335  008C  1F30               	btfss	___fladd@signs,6
  2336  008D  288F               	goto	u1431
  2337  008E  2890               	goto	u1430
  2338  008F                     u1431:
  2339  008F  2894               	goto	l1646
  2340  0090                     u1430:
  2341  0090                     l1644:
  2342  0090  3080               	movlw	128
  2343  0091  00A8               	movwf	??___fladd
  2344  0092  0828               	movf	??___fladd,w
  2345  0093  06B0               	xorwf	___fladd@signs,f
  2346  0094                     l1646:
  2347  0094  0832               	movf	___fladd@bexp,w
  2348  0095  00A8               	movwf	??___fladd
  2349  0096  0828               	movf	??___fladd,w
  2350  0097  00B3               	movwf	___fladd@grs
  2351  0098                     l1648:
  2352  0098  0831               	movf	___fladd@aexp,w
  2353  0099  00A8               	movwf	??___fladd
  2354  009A  0828               	movf	??___fladd,w
  2355  009B  00B2               	movwf	___fladd@bexp
  2356  009C                     l1650:
  2357  009C  0833               	movf	___fladd@grs,w
  2358  009D  00A8               	movwf	??___fladd
  2359  009E  0828               	movf	??___fladd,w
  2360  009F  00B1               	movwf	___fladd@aexp
  2361  00A0                     l1652:
  2362  00A0  0820               	movf	___fladd@b,w
  2363  00A1  00A8               	movwf	??___fladd
  2364  00A2  0828               	movf	??___fladd,w
  2365  00A3  00B3               	movwf	___fladd@grs
  2366  00A4                     l1654:
  2367  00A4  0824               	movf	___fladd@a,w
  2368  00A5  00A8               	movwf	??___fladd
  2369  00A6  0828               	movf	??___fladd,w
  2370  00A7  00A0               	movwf	___fladd@b
  2371  00A8                     l1656:
  2372  00A8  0833               	movf	___fladd@grs,w
  2373  00A9  00A8               	movwf	??___fladd
  2374  00AA  0828               	movf	??___fladd,w
  2375  00AB  00A4               	movwf	___fladd@a
  2376  00AC                     l1658:
  2377  00AC  0821               	movf	___fladd@b+1,w
  2378  00AD  00A8               	movwf	??___fladd
  2379  00AE  0828               	movf	??___fladd,w
  2380  00AF  00B3               	movwf	___fladd@grs
  2381  00B0                     l1660:
  2382  00B0  0825               	movf	___fladd@a+1,w
  2383  00B1  00A8               	movwf	??___fladd
  2384  00B2  0828               	movf	??___fladd,w
  2385  00B3  00A1               	movwf	___fladd@b+1
  2386  00B4                     l1662:
  2387  00B4  0833               	movf	___fladd@grs,w
  2388  00B5  00A8               	movwf	??___fladd
  2389  00B6  0828               	movf	??___fladd,w
  2390  00B7  00A5               	movwf	___fladd@a+1
  2391  00B8                     l1664:
  2392  00B8  0822               	movf	___fladd@b+2,w
  2393  00B9  00A8               	movwf	??___fladd
  2394  00BA  0828               	movf	??___fladd,w
  2395  00BB  00B3               	movwf	___fladd@grs
  2396  00BC                     l1666:
  2397  00BC  0826               	movf	___fladd@a+2,w
  2398  00BD  00A8               	movwf	??___fladd
  2399  00BE  0828               	movf	??___fladd,w
  2400  00BF  00A2               	movwf	___fladd@b+2
  2401  00C0                     l1668:
  2402  00C0  0833               	movf	___fladd@grs,w
  2403  00C1  00A8               	movwf	??___fladd
  2404  00C2  0828               	movf	??___fladd,w
  2405  00C3  00A6               	movwf	___fladd@a+2
  2406  00C4                     l1670:
  2407  00C4  0823               	movf	___fladd@b+3,w
  2408  00C5  00A8               	movwf	??___fladd
  2409  00C6  0828               	movf	??___fladd,w
  2410  00C7  00B3               	movwf	___fladd@grs
  2411  00C8                     l1672:
  2412  00C8  0827               	movf	___fladd@a+3,w
  2413  00C9  00A8               	movwf	??___fladd
  2414  00CA  0828               	movf	??___fladd,w
  2415  00CB  00A3               	movwf	___fladd@b+3
  2416  00CC                     l1674:
  2417  00CC  0833               	movf	___fladd@grs,w
  2418  00CD  00A8               	movwf	??___fladd
  2419  00CE  0828               	movf	??___fladd,w
  2420  00CF  00A7               	movwf	___fladd@a+3
  2421  00D0                     l1676:
  2422  00D0  01B3               	clrf	___fladd@grs
  2423  00D1                     l1678:
  2424  00D1  0831               	movf	___fladd@aexp,w
  2425  00D2  00A8               	movwf	??___fladd
  2426  00D3  01A9               	clrf	??___fladd+1
  2427  00D4  0829               	movf	??___fladd+1,w
  2428  00D5  00AB               	movwf	??___fladd+3
  2429  00D6  0832               	movf	___fladd@bexp,w
  2430  00D7  0228               	subwf	??___fladd,w
  2431  00D8  00AA               	movwf	??___fladd+2
  2432  00D9  1C03               	skipc
  2433  00DA  03AB               	decf	??___fladd+3,f
  2434  00DB  082B               	movf	??___fladd+3,w
  2435  00DC  3A80               	xorlw	128
  2436  00DD  00FF               	movwf	btemp+1
  2437  00DE  3080               	movlw	128
  2438  00DF  027F               	subwf	btemp+1,w
  2439  00E0  1D03               	skipz
  2440  00E1  28E4               	goto	u1445
  2441  00E2  301A               	movlw	26
  2442  00E3  022A               	subwf	??___fladd+2,w
  2443  00E4                     u1445:
  2444  00E4  1C03               	skipc
  2445  00E5  28E7               	goto	u1441
  2446  00E6  28E8               	goto	u1440
  2447  00E7                     u1441:
  2448  00E7  2925               	goto	l1694
  2449  00E8                     u1440:
  2450  00E8                     l1680:
  2451  00E8  1283               	bcf	3,5	;RP0=0, select bank0
  2452  00E9  1303               	bcf	3,6	;RP1=0, select bank0
  2453  00EA  0823               	movf	___fladd@b+3,w
  2454  00EB  0422               	iorwf	___fladd@b+2,w
  2455  00EC  0421               	iorwf	___fladd@b+1,w
  2456  00ED  0420               	iorwf	___fladd@b,w
  2457  00EE  1D03               	skipz
  2458  00EF  28F1               	goto	u1451
  2459  00F0  28F3               	goto	u1450
  2460  00F1                     u1451:
  2461  00F1  3001               	movlw	1
  2462  00F2  28F4               	goto	u1460
  2463  00F3                     u1450:
  2464  00F3  3000               	movlw	0
  2465  00F4                     u1460:
  2466  00F4  00A8               	movwf	??___fladd
  2467  00F5  0828               	movf	??___fladd,w
  2468  00F6  00B3               	movwf	___fladd@grs
  2469  00F7  3000               	movlw	0
  2470  00F8  00A3               	movwf	___fladd@b+3
  2471  00F9  3000               	movlw	0
  2472  00FA  00A2               	movwf	___fladd@b+2
  2473  00FB  3000               	movlw	0
  2474  00FC  00A1               	movwf	___fladd@b+1
  2475  00FD  3000               	movlw	0
  2476  00FE  00A0               	movwf	___fladd@b
  2477  00FF  0831               	movf	___fladd@aexp,w
  2478  0100  00A8               	movwf	??___fladd
  2479  0101  0828               	movf	??___fladd,w
  2480  0102  00B2               	movwf	___fladd@bexp
  2481  0103  292D               	goto	l621
  2482  0104                     l623:
  2483  0104  1C33               	btfss	___fladd@grs,0
  2484  0105  2907               	goto	u1471
  2485  0106  2908               	goto	u1470
  2486  0107                     u1471:
  2487  0107  2911               	goto	l1684
  2488  0108                     u1470:
  2489  0108                     l1682:
  2490  0108  0833               	movf	___fladd@grs,w
  2491  0109  00A8               	movwf	??___fladd
  2492  010A  1003               	clrc
  2493  010B  0C28               	rrf	??___fladd,w
  2494  010C  3801               	iorlw	1
  2495  010D  00A9               	movwf	??___fladd+1
  2496  010E  0829               	movf	??___fladd+1,w
  2497  010F  00B3               	movwf	___fladd@grs
  2498  0110  2913               	goto	l1686
  2499  0111                     l1684:
  2500  0111  1003               	clrc
  2501  0112  0CB3               	rrf	___fladd@grs,f
  2502  0113                     l1686:
  2503  0113  1C20               	btfss	___fladd@b,0
  2504  0114  2916               	goto	u1481
  2505  0115  2917               	goto	u1480
  2506  0116                     u1481:
  2507  0116  2918               	goto	l1690
  2508  0117                     u1480:
  2509  0117                     l1688:
  2510  0117  17B3               	bsf	___fladd@grs,7
  2511  0118                     l1690:
  2512  0118  3001               	movlw	1
  2513  0119  00A8               	movwf	??___fladd
  2514  011A                     u1495:
  2515  011A  0D23               	rlf	___fladd@b+3,w
  2516  011B  0CA3               	rrf	___fladd@b+3,f
  2517  011C  0CA2               	rrf	___fladd@b+2,f
  2518  011D  0CA1               	rrf	___fladd@b+1,f
  2519  011E  0CA0               	rrf	___fladd@b,f
  2520  011F  0BA8               	decfsz	??___fladd& (0+127),f
  2521  0120  291A               	goto	u1495
  2522  0121                     l1692:
  2523  0121  3001               	movlw	1
  2524  0122  00A8               	movwf	??___fladd
  2525  0123  0828               	movf	??___fladd,w
  2526  0124  07B2               	addwf	___fladd@bexp,f
  2527  0125                     l1694:
  2528  0125  1283               	bcf	3,5	;RP0=0, select bank0
  2529  0126  1303               	bcf	3,6	;RP1=0, select bank0
  2530  0127  0831               	movf	___fladd@aexp,w
  2531  0128  0232               	subwf	___fladd@bexp,w
  2532  0129  1C03               	skipc
  2533  012A  292C               	goto	u1501
  2534  012B  292D               	goto	u1500
  2535  012C                     u1501:
  2536  012C  2904               	goto	l623
  2537  012D                     u1500:
  2538  012D                     l621:
  2539  012D  1B30               	btfsc	___fladd@signs,6
  2540  012E  2930               	goto	u1511
  2541  012F  2931               	goto	u1510
  2542  0130                     u1511:
  2543  0130  297C               	goto	l1720
  2544  0131                     u1510:
  2545  0131                     l1696:
  2546  0131  0832               	movf	___fladd@bexp,w
  2547  0132  1D03               	btfss	3,2
  2548  0133  2935               	goto	u1521
  2549  0134  2936               	goto	u1520
  2550  0135                     u1521:
  2551  0135  293F               	goto	l1702
  2552  0136                     u1520:
  2553  0136                     l1698:
  2554  0136  3000               	movlw	0
  2555  0137  00A3               	movwf	?___fladd+3
  2556  0138  3000               	movlw	0
  2557  0139  00A2               	movwf	?___fladd+2
  2558  013A  3000               	movlw	0
  2559  013B  00A1               	movwf	?___fladd+1
  2560  013C  3000               	movlw	0
  2561  013D  00A0               	movwf	?___fladd
  2562  013E  2AAA               	goto	l630
  2563  013F                     l1702:
  2564  013F  0824               	movf	___fladd@a,w
  2565  0140  07A0               	addwf	___fladd@b,f
  2566  0141  0825               	movf	___fladd@a+1,w
  2567  0142  1103               	clrz
  2568  0143  1803               	skipnc
  2569  0144  3E01               	addlw	1
  2570  0145  1903               	skipnz
  2571  0146  2948               	goto	u1531
  2572  0147  07A1               	addwf	___fladd@b+1,f
  2573  0148                     u1531:
  2574  0148  0826               	movf	___fladd@a+2,w
  2575  0149  1103               	clrz
  2576  014A  1803               	skipnc
  2577  014B  3E01               	addlw	1
  2578  014C  1903               	skipnz
  2579  014D  294F               	goto	u1532
  2580  014E  07A2               	addwf	___fladd@b+2,f
  2581  014F                     u1532:
  2582  014F  0827               	movf	___fladd@a+3,w
  2583  0150  1103               	clrz
  2584  0151  1803               	skipnc
  2585  0152  3E01               	addlw	1
  2586  0153  1903               	skipnz
  2587  0154  2956               	goto	u1533
  2588  0155  07A3               	addwf	___fladd@b+3,f
  2589  0156                     u1533:
  2590  0156                     l1704:
  2591  0156  1C23               	btfss	___fladd@b+3,0
  2592  0157  2959               	goto	u1541
  2593  0158  295A               	goto	u1540
  2594  0159                     u1541:
  2595  0159  2A30               	goto	l1754
  2596  015A                     u1540:
  2597  015A                     l1706:
  2598  015A  1C33               	btfss	___fladd@grs,0
  2599  015B  295D               	goto	u1551
  2600  015C  295E               	goto	u1550
  2601  015D                     u1551:
  2602  015D  2967               	goto	l1710
  2603  015E                     u1550:
  2604  015E                     l1708:
  2605  015E  0833               	movf	___fladd@grs,w
  2606  015F  00A8               	movwf	??___fladd
  2607  0160  1003               	clrc
  2608  0161  0C28               	rrf	??___fladd,w
  2609  0162  3801               	iorlw	1
  2610  0163  00A9               	movwf	??___fladd+1
  2611  0164  0829               	movf	??___fladd+1,w
  2612  0165  00B3               	movwf	___fladd@grs
  2613  0166  2969               	goto	l1712
  2614  0167                     l1710:
  2615  0167  1003               	clrc
  2616  0168  0CB3               	rrf	___fladd@grs,f
  2617  0169                     l1712:
  2618  0169  1C20               	btfss	___fladd@b,0
  2619  016A  296C               	goto	u1561
  2620  016B  296D               	goto	u1560
  2621  016C                     u1561:
  2622  016C  296E               	goto	l1716
  2623  016D                     u1560:
  2624  016D                     l1714:
  2625  016D  17B3               	bsf	___fladd@grs,7
  2626  016E                     l1716:
  2627  016E  3001               	movlw	1
  2628  016F  00A8               	movwf	??___fladd
  2629  0170                     u1575:
  2630  0170  0D23               	rlf	___fladd@b+3,w
  2631  0171  0CA3               	rrf	___fladd@b+3,f
  2632  0172  0CA2               	rrf	___fladd@b+2,f
  2633  0173  0CA1               	rrf	___fladd@b+1,f
  2634  0174  0CA0               	rrf	___fladd@b,f
  2635  0175  0BA8               	decfsz	??___fladd& (0+127),f
  2636  0176  2970               	goto	u1575
  2637  0177                     l1718:
  2638  0177  3001               	movlw	1
  2639  0178  00A8               	movwf	??___fladd
  2640  0179  0828               	movf	??___fladd,w
  2641  017A  07B2               	addwf	___fladd@bexp,f
  2642  017B  2A30               	goto	l1754
  2643  017C                     l1720:
  2644  017C  0823               	movf	___fladd@b+3,w
  2645  017D  3A80               	xorlw	128
  2646  017E  00FF               	movwf	btemp+1
  2647  017F  0827               	movf	___fladd@a+3,w
  2648  0180  3A80               	xorlw	128
  2649  0181  027F               	subwf	btemp+1,w
  2650  0182  1D03               	skipz
  2651  0183  298E               	goto	u1583
  2652  0184  0826               	movf	___fladd@a+2,w
  2653  0185  0222               	subwf	___fladd@b+2,w
  2654  0186  1D03               	skipz
  2655  0187  298E               	goto	u1583
  2656  0188  0825               	movf	___fladd@a+1,w
  2657  0189  0221               	subwf	___fladd@b+1,w
  2658  018A  1D03               	skipz
  2659  018B  298E               	goto	u1583
  2660  018C  0824               	movf	___fladd@a,w
  2661  018D  0220               	subwf	___fladd@b,w
  2662  018E                     u1583:
  2663  018E  1803               	skipnc
  2664  018F  2991               	goto	u1581
  2665  0190  2992               	goto	u1580
  2666  0191                     u1581:
  2667  0191  29EA               	goto	l1730
  2668  0192                     u1580:
  2669  0192                     l1722:
  2670  0192  30FF               	movlw	255
  2671  0193  00A8               	movwf	??___fladd
  2672  0194  30FF               	movlw	255
  2673  0195  00A9               	movwf	??___fladd+1
  2674  0196  30FF               	movlw	255
  2675  0197  00AA               	movwf	??___fladd+2
  2676  0198  30FF               	movlw	255
  2677  0199  00AB               	movwf	??___fladd+3
  2678  019A  0824               	movf	___fladd@a,w
  2679  019B  00AC               	movwf	??___fladd+4
  2680  019C  0825               	movf	___fladd@a+1,w
  2681  019D  00AD               	movwf	??___fladd+5
  2682  019E  0826               	movf	___fladd@a+2,w
  2683  019F  00AE               	movwf	??___fladd+6
  2684  01A0  0827               	movf	___fladd@a+3,w
  2685  01A1  00AF               	movwf	??___fladd+7
  2686  01A2  0820               	movf	___fladd@b,w
  2687  01A3  02AC               	subwf	??___fladd+4,f
  2688  01A4  0821               	movf	___fladd@b+1,w
  2689  01A5  1C03               	skipc
  2690  01A6  0F21               	incfsz	___fladd@b+1,w
  2691  01A7  29A9               	goto	u1591
  2692  01A8  29AA               	goto	u1592
  2693  01A9                     u1591:
  2694  01A9  02AD               	subwf	??___fladd+5,f
  2695  01AA                     u1592:
  2696  01AA  0822               	movf	___fladd@b+2,w
  2697  01AB  1C03               	skipc
  2698  01AC  0F22               	incfsz	___fladd@b+2,w
  2699  01AD  29AF               	goto	u1593
  2700  01AE  29B0               	goto	u1594
  2701  01AF                     u1593:
  2702  01AF  02AE               	subwf	??___fladd+6,f
  2703  01B0                     u1594:
  2704  01B0  0823               	movf	___fladd@b+3,w
  2705  01B1  1C03               	skipc
  2706  01B2  0F23               	incfsz	___fladd@b+3,w
  2707  01B3  29B5               	goto	u1595
  2708  01B4  29B6               	goto	u1596
  2709  01B5                     u1595:
  2710  01B5  02AF               	subwf	??___fladd+7,f
  2711  01B6                     u1596:
  2712  01B6  082C               	movf	??___fladd+4,w
  2713  01B7  07A8               	addwf	??___fladd,f
  2714  01B8  082D               	movf	??___fladd+5,w
  2715  01B9  1803               	skipnc
  2716  01BA  0F2D               	incfsz	??___fladd+5,w
  2717  01BB  29BD               	goto	u1600
  2718  01BC  29BE               	goto	u1601
  2719  01BD                     u1600:
  2720  01BD  07A9               	addwf	??___fladd+1,f
  2721  01BE                     u1601:
  2722  01BE  082E               	movf	??___fladd+6,w
  2723  01BF  1803               	skipnc
  2724  01C0  0F2E               	incfsz	??___fladd+6,w
  2725  01C1  29C3               	goto	u1602
  2726  01C2  29C4               	goto	u1603
  2727  01C3                     u1602:
  2728  01C3  07AA               	addwf	??___fladd+2,f
  2729  01C4                     u1603:
  2730  01C4  082F               	movf	??___fladd+7,w
  2731  01C5  1803               	skipnc
  2732  01C6  0A2F               	incf	??___fladd+7,w
  2733  01C7  07AB               	addwf	??___fladd+3,f
  2734  01C8  082B               	movf	??___fladd+3,w
  2735  01C9  00A3               	movwf	___fladd@b+3
  2736  01CA  082A               	movf	??___fladd+2,w
  2737  01CB  00A2               	movwf	___fladd@b+2
  2738  01CC  0829               	movf	??___fladd+1,w
  2739  01CD  00A1               	movwf	___fladd@b+1
  2740  01CE  0828               	movf	??___fladd,w
  2741  01CF  00A0               	movwf	___fladd@b
  2742  01D0                     l1724:
  2743  01D0  3080               	movlw	128
  2744  01D1  00A8               	movwf	??___fladd
  2745  01D2  0828               	movf	??___fladd,w
  2746  01D3  06B0               	xorwf	___fladd@signs,f
  2747  01D4  09B3               	comf	___fladd@grs,f
  2748  01D5  0AB3               	incf	___fladd@grs,f
  2749  01D6                     l1726:
  2750  01D6  0833               	movf	___fladd@grs,w
  2751  01D7  1D03               	btfss	3,2
  2752  01D8  29DA               	goto	u1611
  2753  01D9  29DB               	goto	u1610
  2754  01DA                     u1611:
  2755  01DA  29F8               	goto	l638
  2756  01DB                     u1610:
  2757  01DB                     l1728:
  2758  01DB  3001               	movlw	1
  2759  01DC  07A0               	addwf	___fladd@b,f
  2760  01DD  3000               	movlw	0
  2761  01DE  1803               	skipnc
  2762  01DF  3001               	movlw	1
  2763  01E0  07A1               	addwf	___fladd@b+1,f
  2764  01E1  3000               	movlw	0
  2765  01E2  1803               	skipnc
  2766  01E3  3001               	movlw	1
  2767  01E4  07A2               	addwf	___fladd@b+2,f
  2768  01E5  3000               	movlw	0
  2769  01E6  1803               	skipnc
  2770  01E7  3001               	movlw	1
  2771  01E8  07A3               	addwf	___fladd@b+3,f
  2772  01E9  29F8               	goto	l638
  2773  01EA                     l1730:
  2774  01EA  0824               	movf	___fladd@a,w
  2775  01EB  02A0               	subwf	___fladd@b,f
  2776  01EC  0825               	movf	___fladd@a+1,w
  2777  01ED  1C03               	skipc
  2778  01EE  0F25               	incfsz	___fladd@a+1,w
  2779  01EF  02A1               	subwf	___fladd@b+1,f
  2780  01F0  0826               	movf	___fladd@a+2,w
  2781  01F1  1C03               	skipc
  2782  01F2  0F26               	incfsz	___fladd@a+2,w
  2783  01F3  02A2               	subwf	___fladd@b+2,f
  2784  01F4  0827               	movf	___fladd@a+3,w
  2785  01F5  1C03               	skipc
  2786  01F6  0F27               	incfsz	___fladd@a+3,w
  2787  01F7  02A3               	subwf	___fladd@b+3,f
  2788  01F8                     l638:
  2789  01F8  0823               	movf	___fladd@b+3,w
  2790  01F9  0422               	iorwf	___fladd@b+2,w
  2791  01FA  0421               	iorwf	___fladd@b+1,w
  2792  01FB  0420               	iorwf	___fladd@b,w
  2793  01FC  1D03               	skipz
  2794  01FD  29FF               	goto	u1621
  2795  01FE  2A00               	goto	u1620
  2796  01FF                     u1621:
  2797  01FF  2A2C               	goto	l1752
  2798  0200                     u1620:
  2799  0200                     l1732:
  2800  0200  0833               	movf	___fladd@grs,w
  2801  0201  1D03               	btfss	3,2
  2802  0202  2A04               	goto	u1631
  2803  0203  2A05               	goto	u1630
  2804  0204                     u1631:
  2805  0204  2A2C               	goto	l1752
  2806  0205                     u1630:
  2807  0205                     l1734:
  2808  0205  3000               	movlw	0
  2809  0206  00A3               	movwf	?___fladd+3
  2810  0207  3000               	movlw	0
  2811  0208  00A2               	movwf	?___fladd+2
  2812  0209  3000               	movlw	0
  2813  020A  00A1               	movwf	?___fladd+1
  2814  020B  3000               	movlw	0
  2815  020C  00A0               	movwf	?___fladd
  2816  020D  2AAA               	goto	l630
  2817  020E                     l1738:
  2818  020E  3001               	movlw	1
  2819  020F  00A8               	movwf	??___fladd
  2820  0210                     u1645:
  2821  0210  1003               	clrc
  2822  0211  0DA0               	rlf	___fladd@b,f
  2823  0212  0DA1               	rlf	___fladd@b+1,f
  2824  0213  0DA2               	rlf	___fladd@b+2,f
  2825  0214  0DA3               	rlf	___fladd@b+3,f
  2826  0215  0BA8               	decfsz	??___fladd,f
  2827  0216  2A10               	goto	u1645
  2828  0217                     l1740:
  2829  0217  1FB3               	btfss	___fladd@grs,7
  2830  0218  2A1A               	goto	u1651
  2831  0219  2A1B               	goto	u1650
  2832  021A                     u1651:
  2833  021A  2A1C               	goto	l642
  2834  021B                     u1650:
  2835  021B                     l1742:
  2836  021B  1420               	bsf	___fladd@b,0
  2837  021C                     l642:
  2838  021C  1C33               	btfss	___fladd@grs,0
  2839  021D  2A1F               	goto	u1661
  2840  021E  2A20               	goto	u1660
  2841  021F                     u1661:
  2842  021F  2A23               	goto	l1746
  2843  0220                     u1660:
  2844  0220                     l1744:
  2845  0220  1403               	setc
  2846  0221  0DB3               	rlf	___fladd@grs,f
  2847  0222  2A25               	goto	l1748
  2848  0223                     l1746:
  2849  0223  1003               	clrc
  2850  0224  0DB3               	rlf	___fladd@grs,f
  2851  0225                     l1748:
  2852  0225  0832               	movf	___fladd@bexp,w
  2853  0226  1903               	btfsc	3,2
  2854  0227  2A29               	goto	u1671
  2855  0228  2A2A               	goto	u1670
  2856  0229                     u1671:
  2857  0229  2A2C               	goto	l1752
  2858  022A                     u1670:
  2859  022A                     l1750:
  2860  022A  3001               	movlw	1
  2861  022B  02B2               	subwf	___fladd@bexp,f
  2862  022C                     l1752:
  2863  022C  1FA2               	btfss	___fladd@b+2,7
  2864  022D  2A2F               	goto	u1681
  2865  022E  2A30               	goto	u1680
  2866  022F                     u1681:
  2867  022F  2A0E               	goto	l1738
  2868  0230                     u1680:
  2869  0230                     l1754:
  2870  0230  01B1               	clrf	___fladd@aexp
  2871  0231                     l1756:
  2872  0231  1FB3               	btfss	___fladd@grs,7
  2873  0232  2A34               	goto	u1691
  2874  0233  2A35               	goto	u1690
  2875  0234                     u1691:
  2876  0234  2A43               	goto	l1764
  2877  0235                     u1690:
  2878  0235                     l1758:
  2879  0235  0833               	movf	___fladd@grs,w
  2880  0236  397F               	andlw	127
  2881  0237  1903               	btfsc	3,2
  2882  0238  2A3A               	goto	u1701
  2883  0239  2A3B               	goto	u1700
  2884  023A                     u1701:
  2885  023A  2A3E               	goto	l648
  2886  023B                     u1700:
  2887  023B                     l1760:
  2888  023B  01B1               	clrf	___fladd@aexp
  2889  023C  0AB1               	incf	___fladd@aexp,f
  2890  023D  2A43               	goto	l1764
  2891  023E                     l648:
  2892  023E  1C20               	btfss	___fladd@b,0
  2893  023F  2A41               	goto	u1711
  2894  0240  2A42               	goto	u1710
  2895  0241                     u1711:
  2896  0241  2A43               	goto	l1764
  2897  0242                     u1710:
  2898  0242  2A3B               	goto	l1760
  2899  0243                     l1764:
  2900  0243  0831               	movf	___fladd@aexp,w
  2901  0244  1903               	btfsc	3,2
  2902  0245  2A47               	goto	u1721
  2903  0246  2A48               	goto	u1720
  2904  0247                     u1721:
  2905  0247  2A7C               	goto	l651
  2906  0248                     u1720:
  2907  0248                     l1766:
  2908  0248  3001               	movlw	1
  2909  0249  07A0               	addwf	___fladd@b,f
  2910  024A  3000               	movlw	0
  2911  024B  1803               	skipnc
  2912  024C  3001               	movlw	1
  2913  024D  07A1               	addwf	___fladd@b+1,f
  2914  024E  3000               	movlw	0
  2915  024F  1803               	skipnc
  2916  0250  3001               	movlw	1
  2917  0251  07A2               	addwf	___fladd@b+2,f
  2918  0252  3000               	movlw	0
  2919  0253  1803               	skipnc
  2920  0254  3001               	movlw	1
  2921  0255  07A3               	addwf	___fladd@b+3,f
  2922  0256                     l1768:
  2923  0256  1C23               	btfss	___fladd@b+3,0
  2924  0257  2A59               	goto	u1731
  2925  0258  2A5A               	goto	u1730
  2926  0259                     u1731:
  2927  0259  2A7C               	goto	l651
  2928  025A                     u1730:
  2929  025A                     l1770:
  2930  025A  0820               	movf	___fladd@b,w
  2931  025B  00A8               	movwf	??___fladd
  2932  025C  0821               	movf	___fladd@b+1,w
  2933  025D  00A9               	movwf	??___fladd+1
  2934  025E  0822               	movf	___fladd@b+2,w
  2935  025F  00AA               	movwf	??___fladd+2
  2936  0260  0823               	movf	___fladd@b+3,w
  2937  0261  00AB               	movwf	??___fladd+3
  2938  0262  3001               	movlw	1
  2939  0263  00AC               	movwf	??___fladd+4
  2940  0264                     u1745:
  2941  0264  0D2B               	rlf	??___fladd+3,w
  2942  0265  0CAB               	rrf	??___fladd+3,f
  2943  0266  0CAA               	rrf	??___fladd+2,f
  2944  0267  0CA9               	rrf	??___fladd+1,f
  2945  0268  0CA8               	rrf	??___fladd,f
  2946  0269                     u1740:
  2947  0269  0BAC               	decfsz	??___fladd+4,f
  2948  026A  2A64               	goto	u1745
  2949  026B  082B               	movf	??___fladd+3,w
  2950  026C  00A3               	movwf	___fladd@b+3
  2951  026D  082A               	movf	??___fladd+2,w
  2952  026E  00A2               	movwf	___fladd@b+2
  2953  026F  0829               	movf	??___fladd+1,w
  2954  0270  00A1               	movwf	___fladd@b+1
  2955  0271  0828               	movf	??___fladd,w
  2956  0272  00A0               	movwf	___fladd@b
  2957  0273  0A32               	incf	___fladd@bexp,w
  2958  0274  1903               	btfsc	3,2
  2959  0275  2A77               	goto	u1751
  2960  0276  2A78               	goto	u1750
  2961  0277                     u1751:
  2962  0277  2A7C               	goto	l651
  2963  0278                     u1750:
  2964  0278                     l1772:
  2965  0278  3001               	movlw	1
  2966  0279  00A8               	movwf	??___fladd
  2967  027A  0828               	movf	??___fladd,w
  2968  027B  07B2               	addwf	___fladd@bexp,f
  2969  027C                     l651:
  2970  027C  0A32               	incf	___fladd@bexp,w
  2971  027D  1903               	btfsc	3,2
  2972  027E  2A80               	goto	u1761
  2973  027F  2A81               	goto	u1760
  2974  0280                     u1761:
  2975  0280  2A86               	goto	l1776
  2976  0281                     u1760:
  2977  0281                     l1774:
  2978  0281  0832               	movf	___fladd@bexp,w
  2979  0282  1D03               	btfss	3,2
  2980  0283  2A85               	goto	u1771
  2981  0284  2A86               	goto	u1770
  2982  0285                     u1771:
  2983  0285  2A94               	goto	l1782
  2984  0286                     u1770:
  2985  0286                     l1776:
  2986  0286  3000               	movlw	0
  2987  0287  00A3               	movwf	___fladd@b+3
  2988  0288  3000               	movlw	0
  2989  0289  00A2               	movwf	___fladd@b+2
  2990  028A  3000               	movlw	0
  2991  028B  00A1               	movwf	___fladd@b+1
  2992  028C  3000               	movlw	0
  2993  028D  00A0               	movwf	___fladd@b
  2994  028E                     l1778:
  2995  028E  0832               	movf	___fladd@bexp,w
  2996  028F  1D03               	btfss	3,2
  2997  0290  2A92               	goto	u1781
  2998  0291  2A93               	goto	u1780
  2999  0292                     u1781:
  3000  0292  2A94               	goto	l1782
  3001  0293                     u1780:
  3002  0293                     l1780:
  3003  0293  01B0               	clrf	___fladd@signs
  3004  0294                     l1782:
  3005  0294  1C32               	btfss	___fladd@bexp,0
  3006  0295  2A97               	goto	u1791
  3007  0296  2A98               	goto	u1790
  3008  0297                     u1791:
  3009  0297  2A9A               	goto	l1786
  3010  0298                     u1790:
  3011  0298                     l1784:
  3012  0298  17A2               	bsf	___fladd@b+2,7
  3013  0299  2A9E               	goto	l659
  3014  029A                     l1786:
  3015  029A  307F               	movlw	127
  3016  029B  00A8               	movwf	??___fladd
  3017  029C  0828               	movf	??___fladd,w
  3018  029D  05A2               	andwf	___fladd@b+2,f
  3019  029E                     l659:
  3020  029E  0832               	movf	___fladd@bexp,w
  3021  029F  00A8               	movwf	??___fladd
  3022  02A0  1003               	clrc
  3023  02A1  0C28               	rrf	??___fladd,w
  3024  02A2  00A9               	movwf	??___fladd+1
  3025  02A3  0829               	movf	??___fladd+1,w
  3026  02A4  00A3               	movwf	___fladd@b+3
  3027  02A5                     l1788:
  3028  02A5  1FB0               	btfss	___fladd@signs,7
  3029  02A6  2AA8               	goto	u1801
  3030  02A7  2AA9               	goto	u1800
  3031  02A8                     u1801:
  3032  02A8  2AAA               	goto	l660
  3033  02A9                     u1800:
  3034  02A9                     l1790:
  3035  02A9  17A3               	bsf	___fladd@b+3,7
  3036  02AA                     l660:
  3037  02AA                     l630:
  3038  02AA  0008               	return
  3039  02AB                     __end_of___fladd:
  3040                           
  3041                           	psect	text11
  3042  02AB                     __ptext11:	
  3043 ;; *************** function ___fldiv *****************
  3044 ;; Defined at:
  3045 ;;		line 8 in file "E:\Microchip\XC8\pic\sources\c90\common\sprcdiv.c"
  3046 ;; Parameters:    Size  Location     Type
  3047 ;;  a               4    0[BANK0 ] unsigned char 
  3048 ;;  b               4    4[BANK0 ] unsigned char 
  3049 ;; Auto vars:     Size  Location     Type
  3050 ;;  grs             4   20[BANK0 ] unsigned long 
  3051 ;;  rem             4   13[BANK0 ] unsigned long 
  3052 ;;  new_exp         2   18[BANK0 ] int 
  3053 ;;  aexp            1   25[BANK0 ] unsigned char 
  3054 ;;  bexp            1   24[BANK0 ] unsigned char 
  3055 ;;  sign            1   17[BANK0 ] unsigned char 
  3056 ;; Return value:  Size  Location     Type
  3057 ;;                  4    0[BANK0 ] unsigned char 
  3058 ;; Registers used:
  3059 ;;		wreg, status,2, status,0, btemp+1
  3060 ;; Tracked objects:
  3061 ;;		On entry : 0/0
  3062 ;;		On exit  : 0/0
  3063 ;;		Unchanged: 0/0
  3064 ;; Data sizes:     COMMON   BANK0   BANK1   BANK3   BANK2
  3065 ;;      Params:         0       8       0       0       0
  3066 ;;      Locals:         0      13       0       0       0
  3067 ;;      Temps:          0       5       0       0       0
  3068 ;;      Totals:         0      26       0       0       0
  3069 ;;Total ram usage:       26 bytes
  3070 ;; Hardware stack levels used: 1
  3071 ;; Hardware stack levels required when called: 2
  3072 ;; This function calls:
  3073 ;;		Nothing
  3074 ;; This function is called by:
  3075 ;;		_decimal
  3076 ;; This function uses a non-reentrant model
  3077 ;;
  3078                           
  3079                           
  3080                           ;psect for function ___fldiv
  3081  02AB                     ___fldiv:
  3082  02AB                     l1872:	
  3083                           ;incstack = 0
  3084                           ; Regs used in ___fldiv: [wreg+status,2+status,0+btemp+1]
  3085                           
  3086  02AB  1283               	bcf	3,5	;RP0=0, select bank0
  3087  02AC  1303               	bcf	3,6	;RP1=0, select bank0
  3088  02AD  0827               	movf	___fldiv@b+3,w
  3089  02AE  3980               	andlw	128
  3090  02AF  00A8               	movwf	??___fldiv
  3091  02B0  0828               	movf	??___fldiv,w
  3092  02B1  00B1               	movwf	___fldiv@sign
  3093  02B2                     l1874:
  3094  02B2  0827               	movf	___fldiv@b+3,w
  3095  02B3  00A8               	movwf	??___fldiv
  3096  02B4  0728               	addwf	??___fldiv,w
  3097  02B5  00A9               	movwf	??___fldiv+1
  3098  02B6  0829               	movf	??___fldiv+1,w
  3099  02B7  00B8               	movwf	___fldiv@bexp
  3100  02B8                     l1876:
  3101  02B8  1FA6               	btfss	___fldiv@b+2,7
  3102  02B9  2ABB               	goto	u1951
  3103  02BA  2ABC               	goto	u1950
  3104  02BB                     u1951:
  3105  02BB  2ABD               	goto	l1880
  3106  02BC                     u1950:
  3107  02BC                     l1878:
  3108  02BC  1438               	bsf	___fldiv@bexp,0
  3109  02BD                     l1880:
  3110  02BD  0838               	movf	___fldiv@bexp,w
  3111  02BE  1903               	btfsc	3,2
  3112  02BF  2AC1               	goto	u1961
  3113  02C0  2AC2               	goto	u1960
  3114  02C1                     u1961:
  3115  02C1  2AD2               	goto	l1890
  3116  02C2                     u1960:
  3117  02C2                     l1882:
  3118  02C2  0A38               	incf	___fldiv@bexp,w
  3119  02C3  1D03               	btfss	3,2
  3120  02C4  2AC6               	goto	u1971
  3121  02C5  2AC7               	goto	u1970
  3122  02C6                     u1971:
  3123  02C6  2ACF               	goto	l1886
  3124  02C7                     u1970:
  3125  02C7                     l1884:
  3126  02C7  3000               	movlw	0
  3127  02C8  00A7               	movwf	___fldiv@b+3
  3128  02C9  3000               	movlw	0
  3129  02CA  00A6               	movwf	___fldiv@b+2
  3130  02CB  3000               	movlw	0
  3131  02CC  00A5               	movwf	___fldiv@b+1
  3132  02CD  3000               	movlw	0
  3133  02CE  00A4               	movwf	___fldiv@b
  3134  02CF                     l1886:
  3135  02CF  17A6               	bsf	___fldiv@b+2,7
  3136  02D0                     l1888:
  3137  02D0  01A7               	clrf	___fldiv@b+3
  3138  02D1  2ADA               	goto	l1892
  3139  02D2                     l1890:
  3140  02D2  3000               	movlw	0
  3141  02D3  00A7               	movwf	___fldiv@b+3
  3142  02D4  3000               	movlw	0
  3143  02D5  00A6               	movwf	___fldiv@b+2
  3144  02D6  3000               	movlw	0
  3145  02D7  00A5               	movwf	___fldiv@b+1
  3146  02D8  3000               	movlw	0
  3147  02D9  00A4               	movwf	___fldiv@b
  3148  02DA                     l1892:
  3149  02DA  0823               	movf	___fldiv@a+3,w
  3150  02DB  3980               	andlw	128
  3151  02DC  00A8               	movwf	??___fldiv
  3152  02DD  0828               	movf	??___fldiv,w
  3153  02DE  06B1               	xorwf	___fldiv@sign,f
  3154  02DF                     l1894:
  3155  02DF  0823               	movf	___fldiv@a+3,w
  3156  02E0  00A8               	movwf	??___fldiv
  3157  02E1  0728               	addwf	??___fldiv,w
  3158  02E2  00A9               	movwf	??___fldiv+1
  3159  02E3  0829               	movf	??___fldiv+1,w
  3160  02E4  00B9               	movwf	___fldiv@aexp
  3161  02E5                     l1896:
  3162  02E5  1FA2               	btfss	___fldiv@a+2,7
  3163  02E6  2AE8               	goto	u1981
  3164  02E7  2AE9               	goto	u1980
  3165  02E8                     u1981:
  3166  02E8  2AEA               	goto	l1900
  3167  02E9                     u1980:
  3168  02E9                     l1898:
  3169  02E9  1439               	bsf	___fldiv@aexp,0
  3170  02EA                     l1900:
  3171  02EA  0839               	movf	___fldiv@aexp,w
  3172  02EB  1903               	btfsc	3,2
  3173  02EC  2AEE               	goto	u1991
  3174  02ED  2AEF               	goto	u1990
  3175  02EE                     u1991:
  3176  02EE  2AFF               	goto	l1910
  3177  02EF                     u1990:
  3178  02EF                     l1902:
  3179  02EF  0A39               	incf	___fldiv@aexp,w
  3180  02F0  1D03               	btfss	3,2
  3181  02F1  2AF3               	goto	u2001
  3182  02F2  2AF4               	goto	u2000
  3183  02F3                     u2001:
  3184  02F3  2AFC               	goto	l1906
  3185  02F4                     u2000:
  3186  02F4                     l1904:
  3187  02F4  3000               	movlw	0
  3188  02F5  00A3               	movwf	___fldiv@a+3
  3189  02F6  3000               	movlw	0
  3190  02F7  00A2               	movwf	___fldiv@a+2
  3191  02F8  3000               	movlw	0
  3192  02F9  00A1               	movwf	___fldiv@a+1
  3193  02FA  3000               	movlw	0
  3194  02FB  00A0               	movwf	___fldiv@a
  3195  02FC                     l1906:
  3196  02FC  17A2               	bsf	___fldiv@a+2,7
  3197  02FD                     l1908:
  3198  02FD  01A3               	clrf	___fldiv@a+3
  3199  02FE  2B07               	goto	l673
  3200  02FF                     l1910:
  3201  02FF  3000               	movlw	0
  3202  0300  00A3               	movwf	___fldiv@a+3
  3203  0301  3000               	movlw	0
  3204  0302  00A2               	movwf	___fldiv@a+2
  3205  0303  3000               	movlw	0
  3206  0304  00A1               	movwf	___fldiv@a+1
  3207  0305  3000               	movlw	0
  3208  0306  00A0               	movwf	___fldiv@a
  3209  0307                     l673:
  3210  0307  0823               	movf	___fldiv@a+3,w
  3211  0308  0422               	iorwf	___fldiv@a+2,w
  3212  0309  0421               	iorwf	___fldiv@a+1,w
  3213  030A  0420               	iorwf	___fldiv@a,w
  3214  030B  1D03               	skipz
  3215  030C  2B0E               	goto	u2011
  3216  030D  2B0F               	goto	u2010
  3217  030E                     u2011:
  3218  030E  2B28               	goto	l1920
  3219  030F                     u2010:
  3220  030F                     l1912:
  3221  030F  3000               	movlw	0
  3222  0310  00A7               	movwf	___fldiv@b+3
  3223  0311  3000               	movlw	0
  3224  0312  00A6               	movwf	___fldiv@b+2
  3225  0313  3000               	movlw	0
  3226  0314  00A5               	movwf	___fldiv@b+1
  3227  0315  3000               	movlw	0
  3228  0316  00A4               	movwf	___fldiv@b
  3229  0317  3080               	movlw	128
  3230  0318  04A6               	iorwf	___fldiv@b+2,f
  3231  0319  307F               	movlw	127
  3232  031A  04A7               	iorwf	___fldiv@b+3,f
  3233  031B                     l1914:
  3234  031B  0831               	movf	___fldiv@sign,w
  3235  031C  00A8               	movwf	??___fldiv
  3236  031D  0828               	movf	??___fldiv,w
  3237  031E  04A7               	iorwf	___fldiv@b+3,f
  3238  031F                     l1916:
  3239  031F  0827               	movf	___fldiv@b+3,w
  3240  0320  00A3               	movwf	?___fldiv+3
  3241  0321  0826               	movf	___fldiv@b+2,w
  3242  0322  00A2               	movwf	?___fldiv+2
  3243  0323  0825               	movf	___fldiv@b+1,w
  3244  0324  00A1               	movwf	?___fldiv+1
  3245  0325  0824               	movf	___fldiv@b,w
  3246  0326  00A0               	movwf	?___fldiv
  3247  0327  2C87               	goto	l675
  3248  0328                     l1920:
  3249  0328  0838               	movf	___fldiv@bexp,w
  3250  0329  1D03               	btfss	3,2
  3251  032A  2B2C               	goto	u2021
  3252  032B  2B2D               	goto	u2020
  3253  032C                     u2021:
  3254  032C  2B36               	goto	l1926
  3255  032D                     u2020:
  3256  032D                     l1922:
  3257  032D  3000               	movlw	0
  3258  032E  00A3               	movwf	?___fldiv+3
  3259  032F  3000               	movlw	0
  3260  0330  00A2               	movwf	?___fldiv+2
  3261  0331  3000               	movlw	0
  3262  0332  00A1               	movwf	?___fldiv+1
  3263  0333  3000               	movlw	0
  3264  0334  00A0               	movwf	?___fldiv
  3265  0335  2C87               	goto	l675
  3266  0336                     l1926:
  3267  0336  0838               	movf	___fldiv@bexp,w
  3268  0337  00A8               	movwf	??___fldiv
  3269  0338  01A9               	clrf	??___fldiv+1
  3270  0339  0829               	movf	??___fldiv+1,w
  3271  033A  00AB               	movwf	??___fldiv+3
  3272  033B  0839               	movf	___fldiv@aexp,w
  3273  033C  0228               	subwf	??___fldiv,w
  3274  033D  00AA               	movwf	??___fldiv+2
  3275  033E  1C03               	skipc
  3276  033F  03AB               	decf	??___fldiv+3,f
  3277  0340  082A               	movf	??___fldiv+2,w
  3278  0341  3E7F               	addlw	127
  3279  0342  00B2               	movwf	___fldiv@new_exp
  3280  0343  082B               	movf	??___fldiv+3,w
  3281  0344  1803               	skipnc
  3282  0345  3E01               	addlw	1
  3283  0346  3E00               	addlw	0
  3284  0347  00B3               	movwf	___fldiv@new_exp+1
  3285  0348                     l1928:
  3286  0348  0827               	movf	___fldiv@b+3,w
  3287  0349  00B0               	movwf	___fldiv@rem+3
  3288  034A  0826               	movf	___fldiv@b+2,w
  3289  034B  00AF               	movwf	___fldiv@rem+2
  3290  034C  0825               	movf	___fldiv@b+1,w
  3291  034D  00AE               	movwf	___fldiv@rem+1
  3292  034E  0824               	movf	___fldiv@b,w
  3293  034F  00AD               	movwf	___fldiv@rem
  3294  0350                     l1930:
  3295  0350  3000               	movlw	0
  3296  0351  00A7               	movwf	___fldiv@b+3
  3297  0352  3000               	movlw	0
  3298  0353  00A6               	movwf	___fldiv@b+2
  3299  0354  3000               	movlw	0
  3300  0355  00A5               	movwf	___fldiv@b+1
  3301  0356  3000               	movlw	0
  3302  0357  00A4               	movwf	___fldiv@b
  3303  0358                     l1932:
  3304  0358  3000               	movlw	0
  3305  0359  00B7               	movwf	___fldiv@grs+3
  3306  035A  3000               	movlw	0
  3307  035B  00B6               	movwf	___fldiv@grs+2
  3308  035C  3000               	movlw	0
  3309  035D  00B5               	movwf	___fldiv@grs+1
  3310  035E  3000               	movlw	0
  3311  035F  00B4               	movwf	___fldiv@grs
  3312  0360                     l1934:
  3313  0360  01B9               	clrf	___fldiv@aexp
  3314  0361  2BAC               	goto	l1954
  3315  0362                     l1936:
  3316  0362  0839               	movf	___fldiv@aexp,w
  3317  0363  1903               	btfsc	3,2
  3318  0364  2B66               	goto	u2031
  3319  0365  2B67               	goto	u2030
  3320  0366                     u2031:
  3321  0366  2B87               	goto	l1946
  3322  0367                     u2030:
  3323  0367                     l1938:
  3324  0367  3001               	movlw	1
  3325  0368  00A8               	movwf	??___fldiv
  3326  0369                     u2045:
  3327  0369  1003               	clrc
  3328  036A  0DAD               	rlf	___fldiv@rem,f
  3329  036B  0DAE               	rlf	___fldiv@rem+1,f
  3330  036C  0DAF               	rlf	___fldiv@rem+2,f
  3331  036D  0DB0               	rlf	___fldiv@rem+3,f
  3332  036E  0BA8               	decfsz	??___fldiv,f
  3333  036F  2B69               	goto	u2045
  3334  0370  3001               	movlw	1
  3335  0371  00A8               	movwf	??___fldiv
  3336  0372                     u2055:
  3337  0372  1003               	clrc
  3338  0373  0DA4               	rlf	___fldiv@b,f
  3339  0374  0DA5               	rlf	___fldiv@b+1,f
  3340  0375  0DA6               	rlf	___fldiv@b+2,f
  3341  0376  0DA7               	rlf	___fldiv@b+3,f
  3342  0377  0BA8               	decfsz	??___fldiv,f
  3343  0378  2B72               	goto	u2055
  3344  0379                     l1940:
  3345  0379  1FB7               	btfss	___fldiv@grs+3,7
  3346  037A  2B7C               	goto	u2061
  3347  037B  2B7D               	goto	u2060
  3348  037C                     u2061:
  3349  037C  2B7E               	goto	l1944
  3350  037D                     u2060:
  3351  037D                     l1942:
  3352  037D  1424               	bsf	___fldiv@b,0
  3353  037E                     l1944:
  3354  037E  3001               	movlw	1
  3355  037F  00A8               	movwf	??___fldiv
  3356  0380                     u2075:
  3357  0380  1003               	clrc
  3358  0381  0DB4               	rlf	___fldiv@grs,f
  3359  0382  0DB5               	rlf	___fldiv@grs+1,f
  3360  0383  0DB6               	rlf	___fldiv@grs+2,f
  3361  0384  0DB7               	rlf	___fldiv@grs+3,f
  3362  0385  0BA8               	decfsz	??___fldiv,f
  3363  0386  2B80               	goto	u2075
  3364  0387                     l1946:
  3365  0387  0823               	movf	___fldiv@a+3,w
  3366  0388  0230               	subwf	___fldiv@rem+3,w
  3367  0389  1D03               	skipz
  3368  038A  2B95               	goto	u2085
  3369  038B  0822               	movf	___fldiv@a+2,w
  3370  038C  022F               	subwf	___fldiv@rem+2,w
  3371  038D  1D03               	skipz
  3372  038E  2B95               	goto	u2085
  3373  038F  0821               	movf	___fldiv@a+1,w
  3374  0390  022E               	subwf	___fldiv@rem+1,w
  3375  0391  1D03               	skipz
  3376  0392  2B95               	goto	u2085
  3377  0393  0820               	movf	___fldiv@a,w
  3378  0394  022D               	subwf	___fldiv@rem,w
  3379  0395                     u2085:
  3380  0395  1C03               	skipc
  3381  0396  2B98               	goto	u2081
  3382  0397  2B99               	goto	u2080
  3383  0398                     u2081:
  3384  0398  2BA8               	goto	l1952
  3385  0399                     u2080:
  3386  0399                     l1948:
  3387  0399  1737               	bsf	___fldiv@grs+3,6
  3388  039A                     l1950:
  3389  039A  0820               	movf	___fldiv@a,w
  3390  039B  02AD               	subwf	___fldiv@rem,f
  3391  039C  0821               	movf	___fldiv@a+1,w
  3392  039D  1C03               	skipc
  3393  039E  0F21               	incfsz	___fldiv@a+1,w
  3394  039F  02AE               	subwf	___fldiv@rem+1,f
  3395  03A0  0822               	movf	___fldiv@a+2,w
  3396  03A1  1C03               	skipc
  3397  03A2  0F22               	incfsz	___fldiv@a+2,w
  3398  03A3  02AF               	subwf	___fldiv@rem+2,f
  3399  03A4  0823               	movf	___fldiv@a+3,w
  3400  03A5  1C03               	skipc
  3401  03A6  0F23               	incfsz	___fldiv@a+3,w
  3402  03A7  02B0               	subwf	___fldiv@rem+3,f
  3403  03A8                     l1952:
  3404  03A8  3001               	movlw	1
  3405  03A9  00A8               	movwf	??___fldiv
  3406  03AA  0828               	movf	??___fldiv,w
  3407  03AB  07B9               	addwf	___fldiv@aexp,f
  3408  03AC                     l1954:
  3409  03AC  301A               	movlw	26
  3410  03AD  0239               	subwf	___fldiv@aexp,w
  3411  03AE  1C03               	skipc
  3412  03AF  2BB1               	goto	u2091
  3413  03B0  2BB2               	goto	u2090
  3414  03B1                     u2091:
  3415  03B1  2B62               	goto	l1936
  3416  03B2                     u2090:
  3417  03B2                     l1956:
  3418  03B2  0830               	movf	___fldiv@rem+3,w
  3419  03B3  042F               	iorwf	___fldiv@rem+2,w
  3420  03B4  042E               	iorwf	___fldiv@rem+1,w
  3421  03B5  042D               	iorwf	___fldiv@rem,w
  3422  03B6  1903               	skipnz
  3423  03B7  2BB9               	goto	u2101
  3424  03B8  2BBA               	goto	u2100
  3425  03B9                     u2101:
  3426  03B9  2BD9               	goto	l1970
  3427  03BA                     u2100:
  3428  03BA                     l1958:
  3429  03BA  1434               	bsf	___fldiv@grs,0
  3430  03BB  2BD9               	goto	l1970
  3431  03BC                     l1960:
  3432  03BC  3001               	movlw	1
  3433  03BD  00A8               	movwf	??___fldiv
  3434  03BE                     u2115:
  3435  03BE  1003               	clrc
  3436  03BF  0DA4               	rlf	___fldiv@b,f
  3437  03C0  0DA5               	rlf	___fldiv@b+1,f
  3438  03C1  0DA6               	rlf	___fldiv@b+2,f
  3439  03C2  0DA7               	rlf	___fldiv@b+3,f
  3440  03C3  0BA8               	decfsz	??___fldiv,f
  3441  03C4  2BBE               	goto	u2115
  3442  03C5                     l1962:
  3443  03C5  1FB7               	btfss	___fldiv@grs+3,7
  3444  03C6  2BC8               	goto	u2121
  3445  03C7  2BC9               	goto	u2120
  3446  03C8                     u2121:
  3447  03C8  2BCA               	goto	l1966
  3448  03C9                     u2120:
  3449  03C9                     l1964:
  3450  03C9  1424               	bsf	___fldiv@b,0
  3451  03CA                     l1966:
  3452  03CA  3001               	movlw	1
  3453  03CB  00A8               	movwf	??___fldiv
  3454  03CC                     u2135:
  3455  03CC  1003               	clrc
  3456  03CD  0DB4               	rlf	___fldiv@grs,f
  3457  03CE  0DB5               	rlf	___fldiv@grs+1,f
  3458  03CF  0DB6               	rlf	___fldiv@grs+2,f
  3459  03D0  0DB7               	rlf	___fldiv@grs+3,f
  3460  03D1  0BA8               	decfsz	??___fldiv,f
  3461  03D2  2BCC               	goto	u2135
  3462  03D3                     l1968:
  3463  03D3  30FF               	movlw	255
  3464  03D4  07B2               	addwf	___fldiv@new_exp,f
  3465  03D5  1803               	skipnc
  3466  03D6  0AB3               	incf	___fldiv@new_exp+1,f
  3467  03D7  30FF               	movlw	255
  3468  03D8  07B3               	addwf	___fldiv@new_exp+1,f
  3469  03D9                     l1970:
  3470  03D9  1FA6               	btfss	___fldiv@b+2,7
  3471  03DA  2BDC               	goto	u2141
  3472  03DB  2BDD               	goto	u2140
  3473  03DC                     u2141:
  3474  03DC  2BBC               	goto	l1960
  3475  03DD                     u2140:
  3476  03DD                     l1972:
  3477  03DD  01B9               	clrf	___fldiv@aexp
  3478  03DE                     l1974:
  3479  03DE  1FB7               	btfss	___fldiv@grs+3,7
  3480  03DF  2BE1               	goto	u2151
  3481  03E0  2BE2               	goto	u2150
  3482  03E1                     u2151:
  3483  03E1  2BFE               	goto	l1982
  3484  03E2                     u2150:
  3485  03E2                     l1976:
  3486  03E2  30FF               	movlw	255
  3487  03E3  0534               	andwf	___fldiv@grs,w
  3488  03E4  00A8               	movwf	??___fldiv
  3489  03E5  30FF               	movlw	255
  3490  03E6  0535               	andwf	___fldiv@grs+1,w
  3491  03E7  00A9               	movwf	??___fldiv+1
  3492  03E8  30FF               	movlw	255
  3493  03E9  0536               	andwf	___fldiv@grs+2,w
  3494  03EA  00AA               	movwf	??___fldiv+2
  3495  03EB  307F               	movlw	127
  3496  03EC  0537               	andwf	___fldiv@grs+3,w
  3497  03ED  00AB               	movwf	??___fldiv+3
  3498  03EE  082B               	movf	??___fldiv+3,w
  3499  03EF  042A               	iorwf	??___fldiv+2,w
  3500  03F0  0429               	iorwf	??___fldiv+1,w
  3501  03F1  0428               	iorwf	??___fldiv,w
  3502  03F2  1903               	skipnz
  3503  03F3  2BF5               	goto	u2161
  3504  03F4  2BF6               	goto	u2160
  3505  03F5                     u2161:
  3506  03F5  2BF9               	goto	l689
  3507  03F6                     u2160:
  3508  03F6                     l1978:
  3509  03F6  01B9               	clrf	___fldiv@aexp
  3510  03F7  0AB9               	incf	___fldiv@aexp,f
  3511  03F8  2BFE               	goto	l1982
  3512  03F9                     l689:
  3513  03F9  1C24               	btfss	___fldiv@b,0
  3514  03FA  2BFC               	goto	u2171
  3515  03FB  2BFD               	goto	u2170
  3516  03FC                     u2171:
  3517  03FC  2BFE               	goto	l1982
  3518  03FD                     u2170:
  3519  03FD  2BF6               	goto	l1978
  3520  03FE                     l1982:
  3521  03FE  0839               	movf	___fldiv@aexp,w
  3522  03FF  1903               	btfsc	3,2
  3523  0400  2C02               	goto	u2181
  3524  0401  2C03               	goto	u2180
  3525  0402                     u2181:
  3526  0402  2C34               	goto	l1992
  3527  0403                     u2180:
  3528  0403                     l1984:
  3529  0403  3001               	movlw	1
  3530  0404  07A4               	addwf	___fldiv@b,f
  3531  0405  3000               	movlw	0
  3532  0406  1803               	skipnc
  3533  0407  3001               	movlw	1
  3534  0408  07A5               	addwf	___fldiv@b+1,f
  3535  0409  3000               	movlw	0
  3536  040A  1803               	skipnc
  3537  040B  3001               	movlw	1
  3538  040C  07A6               	addwf	___fldiv@b+2,f
  3539  040D  3000               	movlw	0
  3540  040E  1803               	skipnc
  3541  040F  3001               	movlw	1
  3542  0410  07A7               	addwf	___fldiv@b+3,f
  3543  0411                     l1986:
  3544  0411  1C27               	btfss	___fldiv@b+3,0
  3545  0412  2C14               	goto	u2191
  3546  0413  2C15               	goto	u2190
  3547  0414                     u2191:
  3548  0414  2C34               	goto	l1992
  3549  0415                     u2190:
  3550  0415                     l1988:
  3551  0415  0824               	movf	___fldiv@b,w
  3552  0416  00A8               	movwf	??___fldiv
  3553  0417  0825               	movf	___fldiv@b+1,w
  3554  0418  00A9               	movwf	??___fldiv+1
  3555  0419  0826               	movf	___fldiv@b+2,w
  3556  041A  00AA               	movwf	??___fldiv+2
  3557  041B  0827               	movf	___fldiv@b+3,w
  3558  041C  00AB               	movwf	??___fldiv+3
  3559  041D  3001               	movlw	1
  3560  041E  00AC               	movwf	??___fldiv+4
  3561  041F                     u2205:
  3562  041F  0D2B               	rlf	??___fldiv+3,w
  3563  0420  0CAB               	rrf	??___fldiv+3,f
  3564  0421  0CAA               	rrf	??___fldiv+2,f
  3565  0422  0CA9               	rrf	??___fldiv+1,f
  3566  0423  0CA8               	rrf	??___fldiv,f
  3567  0424                     u2200:
  3568  0424  0BAC               	decfsz	??___fldiv+4,f
  3569  0425  2C1F               	goto	u2205
  3570  0426  082B               	movf	??___fldiv+3,w
  3571  0427  00A7               	movwf	___fldiv@b+3
  3572  0428  082A               	movf	??___fldiv+2,w
  3573  0429  00A6               	movwf	___fldiv@b+2
  3574  042A  0829               	movf	??___fldiv+1,w
  3575  042B  00A5               	movwf	___fldiv@b+1
  3576  042C  0828               	movf	??___fldiv,w
  3577  042D  00A4               	movwf	___fldiv@b
  3578  042E                     l1990:
  3579  042E  3001               	movlw	1
  3580  042F  07B2               	addwf	___fldiv@new_exp,f
  3581  0430  1803               	skipnc
  3582  0431  0AB3               	incf	___fldiv@new_exp+1,f
  3583  0432  3000               	movlw	0
  3584  0433  07B3               	addwf	___fldiv@new_exp+1,f
  3585  0434                     l1992:
  3586  0434  0833               	movf	___fldiv@new_exp+1,w
  3587  0435  3A80               	xorlw	128
  3588  0436  00FF               	movwf	btemp+1
  3589  0437  3080               	movlw	128
  3590  0438  027F               	subwf	btemp+1,w
  3591  0439  1D03               	skipz
  3592  043A  2C3D               	goto	u2215
  3593  043B  30FF               	movlw	255
  3594  043C  0232               	subwf	___fldiv@new_exp,w
  3595  043D                     u2215:
  3596  043D  1C03               	skipc
  3597  043E  2C40               	goto	u2211
  3598  043F  2C41               	goto	u2210
  3599  0440                     u2211:
  3600  0440  2C4F               	goto	l1996
  3601  0441                     u2210:
  3602  0441                     l1994:
  3603  0441  30FF               	movlw	255
  3604  0442  1283               	bcf	3,5	;RP0=0, select bank0
  3605  0443  1303               	bcf	3,6	;RP1=0, select bank0
  3606  0444  00B2               	movwf	___fldiv@new_exp
  3607  0445  3000               	movlw	0
  3608  0446  00B3               	movwf	___fldiv@new_exp+1
  3609  0447  3000               	movlw	0
  3610  0448  00A7               	movwf	___fldiv@b+3
  3611  0449  3000               	movlw	0
  3612  044A  00A6               	movwf	___fldiv@b+2
  3613  044B  3000               	movlw	0
  3614  044C  00A5               	movwf	___fldiv@b+1
  3615  044D  3000               	movlw	0
  3616  044E  00A4               	movwf	___fldiv@b
  3617  044F                     l1996:
  3618  044F  1283               	bcf	3,5	;RP0=0, select bank0
  3619  0450  1303               	bcf	3,6	;RP1=0, select bank0
  3620  0451  0833               	movf	___fldiv@new_exp+1,w
  3621  0452  3A80               	xorlw	128
  3622  0453  00FF               	movwf	btemp+1
  3623  0454  3080               	movlw	128
  3624  0455  027F               	subwf	btemp+1,w
  3625  0456  1D03               	skipz
  3626  0457  2C5A               	goto	u2225
  3627  0458  3001               	movlw	1
  3628  0459  0232               	subwf	___fldiv@new_exp,w
  3629  045A                     u2225:
  3630  045A  1803               	skipnc
  3631  045B  2C5D               	goto	u2221
  3632  045C  2C5E               	goto	u2220
  3633  045D                     u2221:
  3634  045D  2C6B               	goto	l695
  3635  045E                     u2220:
  3636  045E                     l1998:
  3637  045E  1283               	bcf	3,5	;RP0=0, select bank0
  3638  045F  1303               	bcf	3,6	;RP1=0, select bank0
  3639  0460  01B2               	clrf	___fldiv@new_exp
  3640  0461  01B3               	clrf	___fldiv@new_exp+1
  3641  0462                     l2000:
  3642  0462  3000               	movlw	0
  3643  0463  00A7               	movwf	___fldiv@b+3
  3644  0464  3000               	movlw	0
  3645  0465  00A6               	movwf	___fldiv@b+2
  3646  0466  3000               	movlw	0
  3647  0467  00A5               	movwf	___fldiv@b+1
  3648  0468  3000               	movlw	0
  3649  0469  00A4               	movwf	___fldiv@b
  3650  046A                     l2002:
  3651  046A  01B1               	clrf	___fldiv@sign
  3652  046B                     l695:
  3653  046B  1283               	bcf	3,5	;RP0=0, select bank0
  3654  046C  1303               	bcf	3,6	;RP1=0, select bank0
  3655  046D  0832               	movf	___fldiv@new_exp,w
  3656  046E  00A8               	movwf	??___fldiv
  3657  046F  0828               	movf	??___fldiv,w
  3658  0470  00B8               	movwf	___fldiv@bexp
  3659  0471                     l2004:
  3660  0471  1C38               	btfss	___fldiv@bexp,0
  3661  0472  2C74               	goto	u2231
  3662  0473  2C75               	goto	u2230
  3663  0474                     u2231:
  3664  0474  2C77               	goto	l2008
  3665  0475                     u2230:
  3666  0475                     l2006:
  3667  0475  17A6               	bsf	___fldiv@b+2,7
  3668  0476  2C7B               	goto	l697
  3669  0477                     l2008:
  3670  0477  307F               	movlw	127
  3671  0478  00A8               	movwf	??___fldiv
  3672  0479  0828               	movf	??___fldiv,w
  3673  047A  05A6               	andwf	___fldiv@b+2,f
  3674  047B                     l697:
  3675  047B  0838               	movf	___fldiv@bexp,w
  3676  047C  00A8               	movwf	??___fldiv
  3677  047D  1003               	clrc
  3678  047E  0C28               	rrf	??___fldiv,w
  3679  047F  00A9               	movwf	??___fldiv+1
  3680  0480  0829               	movf	??___fldiv+1,w
  3681  0481  00A7               	movwf	___fldiv@b+3
  3682  0482  0831               	movf	___fldiv@sign,w
  3683  0483  00A8               	movwf	??___fldiv
  3684  0484  0828               	movf	??___fldiv,w
  3685  0485  04A7               	iorwf	___fldiv@b+3,f
  3686  0486  2B1F               	goto	l1916
  3687  0487                     l675:
  3688  0487  0008               	return
  3689  0488                     __end_of___fldiv:
  3690                           
  3691                           	psect	text12
  3692  065F                     __ptext12:	
  3693 ;; *************** function _isr *****************
  3694 ;; Defined at:
  3695 ;;		line 69 in file "MainL5.c"
  3696 ;; Parameters:    Size  Location     Type
  3697 ;;		None
  3698 ;; Auto vars:     Size  Location     Type
  3699 ;;		None
  3700 ;; Return value:  Size  Location     Type
  3701 ;;                  1    wreg      void 
  3702 ;; Registers used:
  3703 ;;		wreg, status,2, status,0, pclath, cstack
  3704 ;; Tracked objects:
  3705 ;;		On entry : 0/0
  3706 ;;		On exit  : 0/0
  3707 ;;		Unchanged: 0/0
  3708 ;; Data sizes:     COMMON   BANK0   BANK1   BANK3   BANK2
  3709 ;;      Params:         0       0       0       0       0
  3710 ;;      Locals:         0       0       0       0       0
  3711 ;;      Temps:          5       0       0       0       0
  3712 ;;      Totals:         5       0       0       0       0
  3713 ;;Total ram usage:        5 bytes
  3714 ;; Hardware stack levels used: 1
  3715 ;; Hardware stack levels required when called: 1
  3716 ;; This function calls:
  3717 ;;		___bmul
  3718 ;; This function is called by:
  3719 ;;		Interrupt level 1
  3720 ;; This function uses a non-reentrant model
  3721 ;;
  3722                           
  3723                           
  3724                           ;psect for function _isr
  3725  065F                     _isr:
  3726  065F                     i1l2122:
  3727  065F  1C0B               	btfss	11,0	;volatile
  3728  0660  2E62               	goto	u240_21
  3729  0661  2E63               	goto	u240_20
  3730  0662                     u240_21:
  3731  0662  2E7C               	goto	i1l2138
  3732  0663                     u240_20:
  3733  0663                     i1l2124:
  3734  0663  1283               	bcf	3,5	;RP0=0, select bank0
  3735  0664  1303               	bcf	3,6	;RP1=0, select bank0
  3736  0665  1806               	btfsc	6,0	;volatile
  3737  0666  2E68               	goto	u241_21
  3738  0667  2E69               	goto	u241_20
  3739  0668                     u241_21:
  3740  0668  2E71               	goto	i1l2130
  3741  0669                     u241_20:
  3742  0669                     i1l202:
  3743  0669  1C06               	btfss	6,0	;volatile
  3744  066A  2E6C               	goto	u242_21
  3745  066B  2E6D               	goto	u242_20
  3746  066C                     u242_21:
  3747  066C  2E69               	goto	i1l202
  3748  066D                     u242_20:
  3749  066D                     i1l2128:
  3750  066D  3001               	movlw	1
  3751  066E  00F4               	movwf	??_isr
  3752  066F  0874               	movf	??_isr,w
  3753  0670  07D2               	addwf	_contador,f
  3754  0671                     i1l2130:
  3755  0671  1886               	btfsc	6,1	;volatile
  3756  0672  2E74               	goto	u243_21
  3757  0673  2E75               	goto	u243_20
  3758  0674                     u243_21:
  3759  0674  2E7B               	goto	i1l2136
  3760  0675                     u243_20:
  3761  0675                     i1l206:
  3762  0675  1C86               	btfss	6,1	;volatile
  3763  0676  2E78               	goto	u244_21
  3764  0677  2E79               	goto	u244_20
  3765  0678                     u244_21:
  3766  0678  2E75               	goto	i1l206
  3767  0679                     u244_20:
  3768  0679                     i1l2134:
  3769  0679  3001               	movlw	1
  3770  067A  02D2               	subwf	_contador,f
  3771  067B                     i1l2136:
  3772  067B  100B               	bcf	11,0	;volatile
  3773  067C                     i1l2138:
  3774  067C  1283               	bcf	3,5	;RP0=0, select bank0
  3775  067D  1303               	bcf	3,6	;RP1=0, select bank0
  3776  067E  1E8C               	btfss	12,5	;volatile
  3777  067F  2E81               	goto	u245_21
  3778  0680  2E82               	goto	u245_20
  3779  0681                     u245_21:
  3780  0681  2F05               	goto	i1l224
  3781  0682                     u245_20:
  3782  0682                     i1l2140:
  3783  0682  081A               	movf	26,w	;volatile
  3784  0683  00F4               	movwf	??_isr
  3785  0684  0874               	movf	??_isr,w
  3786  0685  00FD               	movwf	_RXREC
  3787  0686                     i1l2142:
  3788  0686  0A7D               	incf	_RXREC,w
  3789  0687  1D03               	btfss	3,2
  3790  0688  2E8A               	goto	u246_21
  3791  0689  2E8B               	goto	u246_20
  3792  068A                     u246_21:
  3793  068A  2EB9               	goto	i1l2156
  3794  068B                     u246_20:
  3795  068B                     i1l2144:
  3796                           
  3797                           ;MainL5.c: 100:             if(TXIF == 1){
  3798  068B  1E0C               	btfss	12,4	;volatile
  3799  068C  2E8E               	goto	u247_21
  3800  068D  2E8F               	goto	u247_20
  3801  068E                     u247_21:
  3802  068E  2E91               	goto	i1l211
  3803  068F                     u247_20:
  3804  068F                     i1l2146:
  3805                           
  3806                           ;MainL5.c: 101:                TXREG = centenas;
  3807  068F  0879               	movf	_centenas,w
  3808  0690  0099               	movwf	25	;volatile
  3809  0691                     i1l211:	
  3810                           ;MainL5.c: 102:                    }
  3811                           
  3812                           
  3813                           ;MainL5.c: 103:                 _delay((unsigned long)((5)*(4000000/4000.0)));
  3814  0691  3007               	movlw	7
  3815  0692  00F5               	movwf	??_isr+1
  3816  0693  307D               	movlw	125
  3817  0694  00F4               	movwf	??_isr
  3818  0695                     u255_27:
  3819  0695  0BF4               	decfsz	??_isr,f
  3820  0696  2E95               	goto	u255_27
  3821  0697  0BF5               	decfsz	??_isr+1,f
  3822  0698  2E95               	goto	u255_27
  3823  0699                     i1l2148:
  3824                           
  3825                           ;MainL5.c: 105:             if(TXIF == 1){
  3826  0699  1283               	bcf	3,5	;RP0=0, select bank0
  3827  069A  1303               	bcf	3,6	;RP1=0, select bank0
  3828  069B  1E0C               	btfss	12,4	;volatile
  3829  069C  2E9E               	goto	u248_21
  3830  069D  2E9F               	goto	u248_20
  3831  069E                     u248_21:
  3832  069E  2EA1               	goto	i1l212
  3833  069F                     u248_20:
  3834  069F                     i1l2150:
  3835                           
  3836                           ;MainL5.c: 106:                 TXREG = decenas;
  3837  069F  087A               	movf	_decenas,w
  3838  06A0  0099               	movwf	25	;volatile
  3839  06A1                     i1l212:	
  3840                           ;MainL5.c: 107:                }
  3841                           
  3842                           
  3843                           ;MainL5.c: 108:                 _delay((unsigned long)((5)*(4000000/4000.0)));
  3844  06A1  3007               	movlw	7
  3845  06A2  00F5               	movwf	??_isr+1
  3846  06A3  307D               	movlw	125
  3847  06A4  00F4               	movwf	??_isr
  3848  06A5                     u256_27:
  3849  06A5  0BF4               	decfsz	??_isr,f
  3850  06A6  2EA5               	goto	u256_27
  3851  06A7  0BF5               	decfsz	??_isr+1,f
  3852  06A8  2EA5               	goto	u256_27
  3853  06A9                     i1l2152:
  3854                           
  3855                           ;MainL5.c: 109:             if(TXIF == 1){
  3856  06A9  1283               	bcf	3,5	;RP0=0, select bank0
  3857  06AA  1303               	bcf	3,6	;RP1=0, select bank0
  3858  06AB  1E0C               	btfss	12,4	;volatile
  3859  06AC  2EAE               	goto	u249_21
  3860  06AD  2EAF               	goto	u249_20
  3861  06AE                     u249_21:
  3862  06AE  2EB1               	goto	i1l213
  3863  06AF                     u249_20:
  3864  06AF                     i1l2154:
  3865                           
  3866                           ;MainL5.c: 110:                 TXREG = unidades;
  3867  06AF  0850               	movf	_unidades,w
  3868  06B0  0099               	movwf	25	;volatile
  3869  06B1                     i1l213:	
  3870                           ;MainL5.c: 111:                }
  3871                           
  3872                           
  3873                           ;MainL5.c: 112:                 _delay((unsigned long)((5)*(4000000/4000.0)));
  3874  06B1  3007               	movlw	7
  3875  06B2  00F5               	movwf	??_isr+1
  3876  06B3  307D               	movlw	125
  3877  06B4  00F4               	movwf	??_isr
  3878  06B5                     u257_27:
  3879  06B5  0BF4               	decfsz	??_isr,f
  3880  06B6  2EB5               	goto	u257_27
  3881  06B7  0BF5               	decfsz	??_isr+1,f
  3882  06B8  2EB5               	goto	u257_27
  3883  06B9                     i1l2156:
  3884                           
  3885                           ;MainL5.c: 115:         PIR1bits.RCIF =0;
  3886  06B9  1283               	bcf	3,5	;RP0=0, select bank0
  3887  06BA  1303               	bcf	3,6	;RP1=0, select bank0
  3888  06BB  128C               	bcf	12,5	;volatile
  3889  06BC                     i1l2158:
  3890                           
  3891                           ;MainL5.c: 116:         if (RXREC == 0x01){
  3892  06BC  037D               	decf	_RXREC,w
  3893  06BD  1D03               	btfss	3,2
  3894  06BE  2EC0               	goto	u250_21
  3895  06BF  2EC1               	goto	u250_20
  3896  06C0                     u250_21:
  3897  06C0  2F04               	goto	i1l2180
  3898  06C1                     u250_20:
  3899  06C1                     i1l215:
  3900  06C1  1E8C               	btfss	12,5	;volatile
  3901  06C2  2EC4               	goto	u251_21
  3902  06C3  2EC5               	goto	u251_20
  3903  06C4                     u251_21:
  3904  06C4  2EC1               	goto	i1l215
  3905  06C5                     u251_20:
  3906  06C5                     i1l2162:
  3907                           
  3908                           ;MainL5.c: 118:             centA = RCREG;
  3909  06C5  081A               	movf	26,w	;volatile
  3910  06C6  00F4               	movwf	??_isr
  3911  06C7  0874               	movf	??_isr,w
  3912  06C8  00FC               	movwf	_centA
  3913  06C9                     i1l2164:
  3914                           
  3915                           ;MainL5.c: 119:             PIR1bits.RCIF =0;
  3916  06C9  128C               	bcf	12,5	;volatile
  3917  06CA                     i1l218:	
  3918                           ;MainL5.c: 120:             while(RCIF == 0){}
  3919                           
  3920  06CA  1E8C               	btfss	12,5	;volatile
  3921  06CB  2ECD               	goto	u252_21
  3922  06CC  2ECE               	goto	u252_20
  3923  06CD                     u252_21:
  3924  06CD  2ECA               	goto	i1l218
  3925  06CE                     u252_20:
  3926  06CE                     i1l2166:
  3927                           
  3928                           ;MainL5.c: 121:             decA = RCREG;
  3929  06CE  081A               	movf	26,w	;volatile
  3930  06CF  00F4               	movwf	??_isr
  3931  06D0  0874               	movf	??_isr,w
  3932  06D1  00FB               	movwf	_decA
  3933  06D2                     i1l2168:
  3934                           
  3935                           ;MainL5.c: 122:             PIR1bits.RCIF =0;
  3936  06D2  128C               	bcf	12,5	;volatile
  3937  06D3                     i1l221:	
  3938                           ;MainL5.c: 123:             while(RCIF == 0){}
  3939                           
  3940  06D3  1E8C               	btfss	12,5	;volatile
  3941  06D4  2ED6               	goto	u253_21
  3942  06D5  2ED7               	goto	u253_20
  3943  06D6                     u253_21:
  3944  06D6  2ED3               	goto	i1l221
  3945  06D7                     u253_20:
  3946  06D7                     i1l2170:
  3947                           
  3948                           ;MainL5.c: 124:             unA = RCREG;
  3949  06D7  081A               	movf	26,w	;volatile
  3950  06D8  00F4               	movwf	??_isr
  3951  06D9  0874               	movf	??_isr,w
  3952  06DA  00D1               	movwf	_unA
  3953  06DB                     i1l2172:
  3954                           
  3955                           ;MainL5.c: 126:             centA = centA - 48;
  3956  06DB  087C               	movf	_centA,w
  3957  06DC  3ED0               	addlw	208
  3958  06DD  00F4               	movwf	??_isr
  3959  06DE  0874               	movf	??_isr,w
  3960  06DF  00FC               	movwf	_centA
  3961  06E0                     i1l2174:
  3962                           
  3963                           ;MainL5.c: 127:             decA = decA -48;
  3964  06E0  087B               	movf	_decA,w
  3965  06E1  3ED0               	addlw	208
  3966  06E2  00F4               	movwf	??_isr
  3967  06E3  0874               	movf	??_isr,w
  3968  06E4  00FB               	movwf	_decA
  3969  06E5                     i1l2176:
  3970                           
  3971                           ;MainL5.c: 128:             unA = unA - 48;
  3972  06E5  0851               	movf	_unA,w
  3973  06E6  3ED0               	addlw	208
  3974  06E7  00F4               	movwf	??_isr
  3975  06E8  0874               	movf	??_isr,w
  3976  06E9  00D1               	movwf	_unA
  3977  06EA                     i1l2178:
  3978                           
  3979                           ;MainL5.c: 130:             PORTD = (centA*100)+(decA*10)+(unA);
  3980  06EA  300A               	movlw	10
  3981  06EB  00F4               	movwf	??_isr
  3982  06EC  0874               	movf	??_isr,w
  3983  06ED  00F0               	movwf	___bmul@multiplicand
  3984  06EE  087B               	movf	_decA,w
  3985  06EF  120A  158A  2730  120A  118A  	fcall	___bmul
  3986  06F4  00F5               	movwf	??_isr+1
  3987  06F5  3064               	movlw	100
  3988  06F6  00F6               	movwf	??_isr+2
  3989  06F7  0876               	movf	??_isr+2,w
  3990  06F8  00F0               	movwf	___bmul@multiplicand
  3991  06F9  087C               	movf	_centA,w
  3992  06FA  120A  158A  2730  120A  118A  	fcall	___bmul
  3993  06FF  0775               	addwf	??_isr+1,w
  3994  0700  1283               	bcf	3,5	;RP0=0, select bank0
  3995  0701  1303               	bcf	3,6	;RP1=0, select bank0
  3996  0702  0751               	addwf	_unA,w
  3997  0703  0088               	movwf	8	;volatile
  3998  0704                     i1l2180:
  3999                           
  4000                           ;MainL5.c: 134:         PIR1bits.RCIF =0;
  4001  0704  128C               	bcf	12,5	;volatile
  4002  0705                     i1l224:
  4003  0705  0878               	movf	??_isr+4,w
  4004  0706  008A               	movwf	10
  4005  0707  0E77               	swapf	??_isr+3,w
  4006  0708  0083               	movwf	3
  4007  0709  0EFE               	swapf	btemp,f
  4008  070A  0E7E               	swapf	btemp,w
  4009  070B  0009               	retfie
  4010  070C                     __end_of_isr:
  4011                           
  4012                           	psect	intentry
  4013  0004                     __pintentry:	
  4014                           ;incstack = 0
  4015                           ; Regs used in _isr: [wreg+status,2+status,0+pclath+cstack]
  4016                           
  4017  0004                     interrupt_function:
  4018  007E                     saved_w	set	btemp
  4019  0004  00FE               	movwf	btemp
  4020  0005  0E03               	swapf	3,w
  4021  0006  00F7               	movwf	??_isr+3
  4022  0007  080A               	movf	10,w
  4023  0008  00F8               	movwf	??_isr+4
  4024  0009  120A  118A  2E5F   	ljmp	_isr
  4025                           
  4026                           	psect	text13
  4027  0F30                     __ptext13:	
  4028 ;; *************** function ___bmul *****************
  4029 ;; Defined at:
  4030 ;;		line 4 in file "E:\Microchip\XC8\pic\sources\c90\common\Umul8.c"
  4031 ;; Parameters:    Size  Location     Type
  4032 ;;  multiplier      1    wreg     unsigned char 
  4033 ;;  multiplicand    1    0[COMMON] unsigned char 
  4034 ;; Auto vars:     Size  Location     Type
  4035 ;;  multiplier      1    3[COMMON] unsigned char 
  4036 ;;  product         1    2[COMMON] unsigned char 
  4037 ;; Return value:  Size  Location     Type
  4038 ;;                  1    wreg      unsigned char 
  4039 ;; Registers used:
  4040 ;;		wreg, status,2, status,0
  4041 ;; Tracked objects:
  4042 ;;		On entry : 0/0
  4043 ;;		On exit  : 0/0
  4044 ;;		Unchanged: 0/0
  4045 ;; Data sizes:     COMMON   BANK0   BANK1   BANK3   BANK2
  4046 ;;      Params:         1       0       0       0       0
  4047 ;;      Locals:         2       0       0       0       0
  4048 ;;      Temps:          1       0       0       0       0
  4049 ;;      Totals:         4       0       0       0       0
  4050 ;;Total ram usage:        4 bytes
  4051 ;; Hardware stack levels used: 1
  4052 ;; This function calls:
  4053 ;;		Nothing
  4054 ;; This function is called by:
  4055 ;;		_isr
  4056 ;; This function uses a non-reentrant model
  4057 ;;
  4058                           
  4059                           
  4060                           ;psect for function ___bmul
  4061  0F30                     ___bmul:
  4062                           
  4063                           ;incstack = 0
  4064                           ; Regs used in ___bmul: [wreg+status,2+status,0]
  4065                           ;___bmul@multiplier stored from wreg
  4066  0F30  00F3               	movwf	___bmul@multiplier
  4067  0F31                     i1l2108:
  4068  0F31  01F2               	clrf	___bmul@product
  4069  0F32                     i1l2110:
  4070  0F32  1C73               	btfss	___bmul@multiplier,0
  4071  0F33  2F35               	goto	u238_21
  4072  0F34  2F36               	goto	u238_20
  4073  0F35                     u238_21:
  4074  0F35  2F3A               	goto	i1l2114
  4075  0F36                     u238_20:
  4076  0F36                     i1l2112:
  4077  0F36  0870               	movf	___bmul@multiplicand,w
  4078  0F37  00F1               	movwf	??___bmul
  4079  0F38  0871               	movf	??___bmul,w
  4080  0F39  07F2               	addwf	___bmul@product,f
  4081  0F3A                     i1l2114:
  4082  0F3A  1003               	clrc
  4083  0F3B  0DF0               	rlf	___bmul@multiplicand,f
  4084  0F3C                     i1l2116:
  4085  0F3C  1003               	clrc
  4086  0F3D  0CF3               	rrf	___bmul@multiplier,f
  4087  0F3E  0873               	movf	___bmul@multiplier,w
  4088  0F3F  1D03               	btfss	3,2
  4089  0F40  2F42               	goto	u239_21
  4090  0F41  2F43               	goto	u239_20
  4091  0F42                     u239_21:
  4092  0F42  2F32               	goto	i1l2110
  4093  0F43                     u239_20:
  4094  0F43                     i1l2118:
  4095  0F43  0872               	movf	___bmul@product,w
  4096  0F44                     i1l350:
  4097  0F44  0008               	return
  4098  0F45                     __end_of___bmul:
  4099  007E                     btemp	set	126	;btemp
  4100  007E                     wtemp0	set	126
  4101                           
  4102                           	psect	config
  4103                           
  4104                           ;Config register CONFIG1 @ 0x2007
  4105                           ;	Oscillator Selection bits
  4106                           ;	FOSC = INTRC_NOCLKOUT, INTOSCIO oscillator: I/O function on RA6/OSC2/CLKOUT pin, I/O f
      +                          unction on RA7/OSC1/CLKIN
  4107                           ;	Watchdog Timer Enable bit
  4108                           ;	WDTE = OFF, WDT disabled and can be enabled by SWDTEN bit of the WDTCON register
  4109                           ;	Power-up Timer Enable bit
  4110                           ;	PWRTE = OFF, PWRT disabled
  4111                           ;	RE3/MCLR pin function select bit
  4112                           ;	MCLRE = OFF, RE3/MCLR pin function is digital input, MCLR internally tied to VDD
  4113                           ;	Code Protection bit
  4114                           ;	CP = OFF, Program memory code protection is disabled
  4115                           ;	Data Code Protection bit
  4116                           ;	CPD = OFF, Data memory code protection is disabled
  4117                           ;	Brown Out Reset Selection bits
  4118                           ;	BOREN = OFF, BOR disabled
  4119                           ;	Internal External Switchover bit
  4120                           ;	IESO = OFF, Internal/External Switchover mode is disabled
  4121                           ;	Fail-Safe Clock Monitor Enabled bit
  4122                           ;	FCMEN = OFF, Fail-Safe Clock Monitor is disabled
  4123                           ;	Low Voltage Programming Enable bit
  4124                           ;	LVP = OFF, RB3 pin has digital I/O, HV on MCLR must be used for programming
  4125                           ;	In-Circuit Debugger Mode bit
  4126                           ;	DEBUG = 0x1, unprogrammed default
  4127  2007                     	org	8199
  4128  2007  20D4               	dw	8404
  4129                           
  4130                           ;Config register CONFIG2 @ 0x2008
  4131                           ;	Brown-out Reset Selection bit
  4132                           ;	BOR4V = BOR40V, Brown-out Reset set to 4.0V
  4133                           ;	Flash Program Memory Self Write Enable bits
  4134                           ;	WRT = OFF, Write protection off
  4135  2008                     	org	8200
  4136  2008  3FFF               	dw	16383

Data Sizes:
    Strings     0
    Constant    0
    Data        0
    BSS         14
    Persistent  0
    Stack       0

Auto Spaces:
    Space          Size  Autos    Used
    COMMON           14      9      14
    BANK0            80     44      53
    BANK1            80      0       0
    BANK3            96      0       0
    BANK2            96      0       0

Pointer List with Targets:

    None.

Critical Paths under _main in COMMON

    None.

Critical Paths under _isr in COMMON

    _isr->___bmul

Critical Paths under _main in BANK0

    _main->_decimal
    _setup->_initOsc
    _decimal->___fltol
    ___xxtofl->___wmul
    ___fltol->___fldiv
    ___flsub->___fladd
    ___flsub->___xxtofl

Critical Paths under _isr in BANK0

    None.

Critical Paths under _main in BANK1

    None.

Critical Paths under _isr in BANK1

    None.

Critical Paths under _main in BANK3

    None.

Critical Paths under _isr in BANK3

    None.

Critical Paths under _main in BANK2

    None.

Critical Paths under _isr in BANK2

    None.

Call Graph Tables:

 ---------------------------------------------------------------------------------
 (Depth) Function   	        Calls       Base Space   Used Autos Params    Refs
 ---------------------------------------------------------------------------------
 (0) _main                                                 2     2      0    5521
                                             42 BANK0      2     2      0
                            _decimal
                              _setup
 ---------------------------------------------------------------------------------
 (1) _setup                                                0     0      0     186
                         _initEUSART
                            _initOsc
                          _pushPORTB
 ---------------------------------------------------------------------------------
 (2) _pushPORTB                                            1     1      0      66
                                              0 BANK0      1     1      0
 ---------------------------------------------------------------------------------
 (2) _initOsc                                              3     3      0      22
                                              0 BANK0      3     3      0
 ---------------------------------------------------------------------------------
 (2) _initEUSART                                           2     1      1      98
                                              0 BANK0      1     0      1
 ---------------------------------------------------------------------------------
 (1) _decimal                                              5     5      0    5335
                                             37 BANK0      5     5      0
                            ___fldiv
                            ___flsub
                            ___fltol
                             ___wmul
                           ___xxtofl
 ---------------------------------------------------------------------------------
 (2) ___xxtofl                                            14    10      4     550
                                              6 BANK0     14    10      4
                             ___wmul (ARG)
 ---------------------------------------------------------------------------------
 (2) ___wmul                                               6     2      4     396
                                              0 BANK0      6     2      4
 ---------------------------------------------------------------------------------
 (2) ___fltol                                             11     7      4     457
                                             26 BANK0     11     7      4
                            ___fldiv (ARG)
 ---------------------------------------------------------------------------------
 (2) ___flsub                                              8     0      8    2485
                                             20 BANK0      8     0      8
                            ___fladd
                             ___wmul (ARG)
                           ___xxtofl (ARG)
 ---------------------------------------------------------------------------------
 (3) ___fladd                                             20    12      8    2136
                                              0 BANK0     20    12      8
 ---------------------------------------------------------------------------------
 (2) ___fldiv                                             26    18      8    1425
                                              0 BANK0     26    18      8
 ---------------------------------------------------------------------------------
 Estimated maximum stack depth 3
 ---------------------------------------------------------------------------------
 (Depth) Function   	        Calls       Base Space   Used Autos Params    Refs
 ---------------------------------------------------------------------------------
 (4) _isr                                                  5     5      0     244
                                              4 COMMON     5     5      0
                             ___bmul
 ---------------------------------------------------------------------------------
 (5) ___bmul                                               4     3      1     244
                                              0 COMMON     4     3      1
 ---------------------------------------------------------------------------------
 Estimated maximum stack depth 5
 ---------------------------------------------------------------------------------

 Call Graph Graphs:

 _main (ROOT)
   _decimal
     ___fldiv
     ___flsub
       ___fladd
       ___wmul (ARG)
       ___xxtofl (ARG)
         ___wmul (ARG)
     ___fltol
       ___fldiv (ARG)
     ___wmul
     ___xxtofl
   _setup
     _initEUSART
     _initOsc
     _pushPORTB

 _isr (ROOT)
   ___bmul

 Address spaces:
Name               Size   Autos  Total    Cost      Usage
BITCOMMON            E      0       0       0        0.0%
EEDATA             100      0       0       0        0.0%
NULL                 0      0       0       0        0.0%
CODE                 0      0       0       0        0.0%
COMMON               E      9       E       1      100.0%
BITSFR0              0      0       0       1        0.0%
SFR0                 0      0       0       1        0.0%
BITSFR1              0      0       0       2        0.0%
SFR1                 0      0       0       2        0.0%
STACK                0      0       0       2        0.0%
ABS                  0      0      43       3        0.0%
BITBANK0            50      0       0       4        0.0%
BITSFR3              0      0       0       4        0.0%
SFR3                 0      0       0       4        0.0%
BANK0               50     2C      35       5       66.2%
BITSFR2              0      0       0       5        0.0%
SFR2                 0      0       0       5        0.0%
BITBANK1            50      0       0       6        0.0%
BANK1               50      0       0       7        0.0%
BITBANK3            60      0       0       8        0.0%
BANK3               60      0       0       9        0.0%
BITBANK2            60      0       0      10        0.0%
BANK2               60      0       0      11        0.0%
DATA                 0      0      43      12        0.0%


Microchip Technology PIC Macro Assembler V2.32 build 20210201212658 
Symbol Table                                                                                   Wed Aug 18 16:10:07 2021

           ___fldiv@aexp 0039             ___fldiv@bexp 0038             ___fldiv@sign 0031  
         ___bmul@product 0072                       l90 079E                       l91 07A4  
                     l92 07AA                       l93 07B0                       l94 07B6  
                     l86 078C                       l95 07BC                       l87 07E4  
                     l96 07E5                       l88 0792                       l89 0798  
    ___wmul@multiplicand 0022                      l170 0F7D                      l235 0FFF  
                    l324 0FB0                      l173 07FD                      l510 0787  
                    l326 0FC8                      l238 05A2                      l520 0787  
                    l621 012D                      l517 0772                      l630 02AA  
                    l623 0104                      l617 0086                      l642 021C  
                    l651 027C                      l660 02AA                      l638 01F8  
                    l663 0FA1                      l648 023E                      l673 0307  
                    l770 0628                      l675 0487                      l659 029E  
                    l771 0634                      l763 060C                      l757 05C7  
                    l695 046B                      l759 065E                      l697 047B  
                    l689 03F9                      _RB0 0030                      _RB1 0031  
        decimal@variable 0049                      _unA 0051                      _isr 065F  
           ___fltol@exp1 0044                     l2000 0462                     l2002 046A  
                   l2004 0471                     l2020 05BF                     l2100 053E  
                   l2006 0475                     l2030 05EA                     l2022 05CF  
                   l2014 05A6                     l2102 0593                     l2008 0477  
                   l2040 061E                     l2032 05F1                     l2016 05AB  
                   l2104 0598                     l2050 0651                     l2042 0622  
                   l2034 05F5                     l2026 05D8                     l2018 05AF  
                   l2106 059D                     l2052 0655                     l2044 062C  
                   l2036 0603                     l2028 05DD                     l2060 0FCF  
                   l2054 0656                     l2046 0636                     l2038 0613  
                   l2070 0FE7                     l2062 0FD1                     l1600 002A  
                   l2048 064C                     l2080 0FF3                     l2072 0FED  
                   l2064 0FD5                     l1610 003F                     l1602 0030  
                   l2218 07CA                     l2090 0FFD                     l2082 0FF4  
                   l2074 0FF0                     l2066 0FD7                     l2058 0FC9  
                   l1620 0057                     l1612 0047                     l1604 0034  
                   l2092 048B                     l2084 0FF8                     l2076 0FF1  
                   l2068 0FDD                     l1710 0167                     l1702 013F  
                   l1630 0069                     l1622 005D                     l1614 0048  
                   l1606 0035                     l2094 04A8                     l2086 0FF9  
                   l2078 0FF2                     l2182 0F45                     l1712 0169  
                   l1704 0156                     l1720 017C                     l1632 006E  
                   l1640 007E                     l1624 005E                     l1608 003A  
                   l1616 004A                     l2096 04D2                     l2088 0FFC  
                   l2184 0F4A                     l1722 0192                     l1730 01EA  
                   l1714 016D                     l1706 015A                     l1650 009C  
                   l1642 008C                     l1634 0073                     l1626 0064  
                   l1618 0052                     l2098 0514                     l1810 07E9  
                   l2186 0F52                     l1900 02EA                     l1740 0217  
                   l1732 0200                     l1724 01D0                     l1716 016E  
                   l1708 015E                     l1660 00B0                     l1652 00A0  
                   l1644 0090                     l1636 007B                     l1628 0068  
                   l1820 0FAA                     l1804 0F60                     l1812 07F9  
                   l1902 02EF                     l1910 02FF                     l1750 022A  
                   l1742 021B                     l1734 0205                     l1726 01D6  
                   l1718 0177                     l1670 00C4                     l1662 00B4  
                   l1654 00A4                     l1646 0094                     l1638 007C  
                   l1830 070C                     l1822 0FB7                     l1806 0F6E  
                   l1814 07FC                     l1912 030F                     l1920 0328  
                   l1904 02F4                     l1760 023B                     l1744 0220  
                   l1752 022C                     l1728 01DB                     l1680 00E8  
                   l1672 00C8                     l1664 00B8                     l1656 00A8  
                   l1648 0098                     l1840 0738                     l1832 0719  
                   l1824 0FBE                     l1816 0FA2                     l1808 0F74  
                   l1930 0350                     l1922 032D                     l1914 031B  
                   l1906 02FC                     l1770 025A                     l1746 0223  
                   l1738 020E                     l1754 0230                     l1690 0118  
                   l1682 0108                     l1674 00CC                     l1666 00BC  
                   l1658 00AC                     l1842 0740                     l1826 0FC4  
                   l1818 0FA6                     l1940 0379                     l1932 0358  
                   l1916 031F                     l1908 02FD                     l1780 0293  
                   l1772 0278                     l1764 0243                     l1756 0231  
                   l1748 0225                     l1692 0121                     l1684 0111  
                   l1668 00C0                     l1676 00D0                     l1860 0767  
                   l1852 074E                     l1844 0742                     l1836 0722  
                   l1950 039A                     l1942 037D                     l1934 0360  
                   l1926 0336                     l1790 02A9                     l1782 0294  
                   l1774 0281                     l1766 0248                     l1758 0235  
                   l1686 0113                     l1694 0125                     l1678 00D1  
                   l1598 0023                     l1862 0777                     l1846 0746  
                   l1854 0760                     l1838 0737                     l1960 03BC  
                   l1952 03A8                     l1944 037E                     l1936 0362  
                   l1928 0348                     l1880 02BD                     l1872 02AB  
                   l1784 0298                     l1776 0286                     l1768 0256  
                   l1696 0131                     l1688 0117                     l1864 077C  
                   l1792 078B                     l1962 03C5                     l1970 03D9  
                   l1938 0367                     l1946 0387                     l1954 03AC  
                   l1882 02C2                     l1890 02D2                     l1874 02B2  
                   l1786 029A                     l1778 028E                     l1698 0136  
                   l1866 0F7E                     l1972 03DD                     l1964 03C9  
                   l1956 03B2                     l1948 0399                     l1892 02DA  
                   l1884 02C7                     l1876 02B8                     l1788 02A5  
                   l1868 0F82                     l1796 07C2                     l1990 042E  
                   l1982 03FE                     l1974 03DE                     l1966 03CA  
                   l1958 03BA                     l1894 02DF                     l1886 02CF  
                   l1878 02BC                     l1984 0403                     l1992 0434  
                   l1976 03E2                     l1968 03D3                     l1896 02E5  
                   l1888 02D0                     l1994 0441                     l1986 0411  
                   l1978 03F6                     l1898 02E9                     l1996 044F  
                   l1988 0415                     l1998 045E                     ?_isr 0070  
                   u2000 02F4                     u2001 02F3                     u2010 030F  
                   u2011 030E                     u2100 03BA                     u2020 032D  
                   u2101 03B9                     u2021 032C                     u2030 0367  
                   u2031 0366                     u2200 0424                     u2120 03C9  
                   u1400 006E                     u2121 03C8                     u1401 006D  
                   u2210 0441                     u1410 0073                     u2211 0440  
                   u2115 03BE                     u1411 0072                     u2220 045E  
                   u2140 03DD                     u2060 037D                     u1500 012D  
                   u1420 008C                     u2300 0612                     _IOCB 0096  
                   u2221 045D                     u2205 041F                     u2141 03DC  
                   u2061 037C                     u2045 0369                     u1501 012C  
                   u1421 008B                     u2301 0611                     u2230 0475  
                   u2150 03E2                     u1510 0131                     u1430 0090  
                   u1350 0034                     u2231 0474                     u2215 043D  
                   u2151 03E1                     u2135 03CC                     u2055 0372  
                   u1511 0130                     u1431 008F                     u1351 0033  
                   u2160 03F6                     u2080 0399                     u1600 01BD  
                   u1520 0136                     u1440 00E8                     u1360 003A  
                   u2320 0622                     u2240 05AB                     u2225 045A  
                   u2161 03F5                     u2081 0398                     u1601 01BE  
                   u1521 0135                     u1441 00E7                     u1361 0039  
                   u2321 0621                     u2241 05AA                     u2170 03FD  
                   u2090 03B2                     u1610 01DB                     u1602 01C3  
                   u1450 00F3                     u1370 003F                     u2330 0628  
                   u2250 05AF                     u2171 03FC                     u2091 03B1  
                   u2075 0380                     u1611 01DA                     u1603 01C4  
                   u1531 0148                     u1451 00F1                     u1371 003E  
                   u2331 0627                     u2315 0617                     u2251 05AE  
                   u2180 0403                     u1700 023B                     u1620 0200  
                   u1540 015A                     u1532 014F                     u1460 00F4  
                   u1380 005D                     u2340 062C                     u2260 05CF  
                   u2181 0402                     u2085 0395                     u1701 023A  
                   u1621 01FF                     u1541 0159                     u1533 0156  
                   u1445 00E4                     u1381 005C                     u2341 062B  
                   u2261 05CE                     u2190 0415                     u1710 0242  
                   u1630 0205                     u1550 015E                     u1470 0108  
                   u1390 0068                     u2350 0641                     u2191 0414  
                   u1711 0241                     u1631 0204                     u1551 015D  
                   u1471 0107                     u1391 0067                     u1800 02A9  
                   u1720 0248                     u1560 016D                     u1480 0117  
                   u2360 0651                     u2280 05F0                     u1801 02A8  
                   u1721 0247                     u1561 016C                     u1481 0116  
                   u2361 0650                     u2281 05EF                     u1730 025A  
                   u1650 021B                     u1810 0FAA                     u2370 0655  
                   u1731 0259                     u1651 021A                     u1811 0FA9  
                   u2371 0654                     u2355 063C                     u2275 05E2  
                   u1740 0269                     u1660 0220                     u1580 0192  
                   u1900 075F                     u1661 021F                     u1645 0210  
                   u1581 0191                     u1901 075E                     u1750 0278  
                   u1670 022A                     u1910 0766                     u1751 0277  
                   u1671 0229                     u1591 01A9                     u1583 018E  
                   u1575 0170                     u1495 011A                     u1911 0765  
                   u2295 0604                     _PIE1 008C                     u1760 0281  
                   u1680 0230                     u1592 01AA                     u1840 0FC4  
                   _PIE2 008D                     u1761 0280                     u1745 0264  
                   u1681 022F                     u1593 01AF                     u1841 0FC3  
                   u1825 0FB1                     u1770 0286                     u1690 0235  
                   u1594 01B0                     u1930 0777                     u1850 0719  
                   u1771 0285                     u1691 0234                     u1595 01B5  
                   u1931 0776                     u1851 0718                     u1835 0FB8  
                   u2547 0F58                     u1780 0293                     u1596 01B6  
                   u1940 077C                     u1860 0730                     u1781 0292  
                   u1941 077B                     u1925 0769                     u1950 02BC  
                   u1790 0298                     u1870 0746                     u1951 02BB  
                   u1791 0297                     u1871 0745                     u1960 02C2  
                   u1880 074D                     u1961 02C1                     u1881 074C  
                   u1865 072B                     u1970 02C7                     u1971 02C6  
                   u1980 02E9                     u1981 02E8                     u1990 02EF  
                   u1991 02EE                     u1895 074F                     _RBIF 0058  
                   _RCIF 0065                     _PIR1 000C                     _PIR2 000D  
                   _TXIF 0064                     _WPUB 0095             pushPORTB@val 0020  
                   _decA 007B                     _main 0F45                     _var0 0054  
                   _var1 0053                     btemp 007E                     start 000C  
        ___fldiv@new_exp 0032        ___bmul@multiplier 0073                    ??_isr 0074  
          ___fltol@sign1 0043          __end_of___fladd 02AB                    ?_main 0070  
        __end_of___fldiv 0488          __end_of___flsub 0FA2          __end_of___fltol 0788  
                  _ANSEL 0188                    i1l202 0669                    i1l211 0691  
                  i1l212 06A1                    i1l221 06D3                    i1l213 06B1  
                  i1l206 0675                    i1l215 06C1                    i1l224 0705  
                  i1l218 06CA                    i1l350 0F44                    _RCREG 001A  
                  _SPBRG 0099                    _PORTA 0005                    _PORTB 0006  
                  _PORTC 0007                    _PORTD 0008                    _PORTE 0009  
                  _TRISA 0085                    _TRISB 0086                    _TRISC 0087  
                  _TRISD 0088                    _TRISE 0089                    _RXREC 007D  
        __end_of_decimal 05A3                    _TXREG 0019                    _centA 007C  
        __end_of_initOsc 07E6                    _valor 004C                    _setup 0FC9  
                  pclath 000A                    status 0003                    wtemp0 007E  
        __initialization 000F             __end_of_main 0F60                   ??_main 004A  
                 ?_setup 0070                   _ANSELH 0189                   i1l2110 0F32  
                 i1l2112 0F36                   i1l2114 0F3A                   i1l2130 0671  
                 i1l2122 065F                   i1l2116 0F3C                   i1l2108 0F31  
                 i1l2140 0682                   i1l2124 0663                   i1l2118 0F43  
                 i1l2150 069F                   i1l2142 0686                   i1l2134 0679  
                 i1l2152 06A9                   i1l2144 068B                   i1l2136 067B  
                 i1l2128 066D                   i1l2170 06D7                   i1l2162 06C5  
                 i1l2154 06AF                   i1l2146 068F                   i1l2138 067C  
                 i1l2172 06DB                   i1l2164 06C9                   i1l2180 0704  
                 i1l2148 0699                   i1l2156 06B9                   i1l2174 06E0  
                 i1l2166 06CE                   i1l2158 06BC                   i1l2176 06E5  
                 i1l2168 06D2                   i1l2178 06EA                   u240_20 0663  
                 u240_21 0662                   u241_20 0669                   _INTCON 000B  
                 u241_21 0668                   u250_20 06C1                   u242_20 066D  
                 u250_21 06C0                   u242_21 066C                   u251_20 06C5  
                 u243_20 0675                   u251_21 06C4                   u243_21 0674  
                 u252_20 06CE                   u244_20 0679                   u252_21 06CD  
                 u244_21 0678                   u253_20 06D7                   u245_20 0682  
                 u253_21 06D6                   u245_21 0681                   u238_20 0F36  
                 u246_20 068B                   u238_21 0F35                   u246_21 068A  
                 u239_20 0F43                   u247_20 068F                   u239_21 0F42  
                 u247_21 068E                   u255_27 0695                   u248_20 069F  
                 u248_21 069E                   u256_27 06A5                   u249_20 06AF  
                 u249_21 06AE                   u257_27 06B5              initOsc@frec 0022  
                 _SPBRGH 009A         __end_of___xxtofl 065F                   ___bmul 0F30  
              ??___fladd 0028                   ___wmul 0FA2                ??___fldiv 0028  
              ??___flsub 003C                ??___fltol 003E                ??_decimal 0045  
              ??_initOsc 0020                   saved_w 007E             initEUSART@rx 0020  
           initEUSART@tx 0070             ___xxtofl@arg 0030             ___xxtofl@exp 002F  
           ___xxtofl@val 0026  __end_of__initialization 001F               ___fltol@f1 003A  
    ___bmul@multiplicand 0070           __pcstackCOMMON 0070            __end_of_setup 1000  
                ??_setup 0023               __pbssBANK0 004C               __pmaintext 0F45  
                ?___bmul 0070                  ?___wmul 0020               __pintentry 0004  
              ?___xxtofl 0026       __size_of_pushPORTB 0018               _initEUSART 0F60  
        __size_of___bmul 0015                  ___fladd 0023                  ___fldiv 02AB  
                ___flsub 0F7E                  ___fltol 070C          __size_of___wmul 0027  
                _decenas 007A                  _decimal 0488                  __ptext1 0FC9  
                __ptext2 07E6                  __ptext3 0788                  __ptext4 0F60  
                __ptext5 0488                  __ptext6 05A3                  __ptext7 0FA2  
                __ptext8 070C                  __ptext9 0F7E                  _initOsc 0788  
           __size_of_isr 00AD               ??___xxtofl 002A     end_of_initialization 001F  
      __end_of_pushPORTB 07FE                _RCSTAbits 0018              ___fladd@grs 0033  
          ___xxtofl@sign 002E              ___fldiv@grs 0034              ___fldiv@rem 002D  
            ?_initEUSART 0020                _TXSTAbits 0098           __end_of___bmul 0F45  
         __end_of___wmul 0FC9              _BAUDCTLbits 0187      start_initialization 000F  
            __end_of_isr 070C                 ??___bmul 0071                 ??___wmul 0024  
              ___fladd@a 0024                ___fladd@b 0020      __size_of_initEUSART 001E  
              ___fldiv@a 0020                ___fldiv@b 0024              __pbssCOMMON 0079  
              ___flsub@a 0034                ___flsub@b 0038                ___latbits 0002  
          __pcstackBANK0 0020        __size_of___xxtofl 00BC                 ?___fladd 0020  
               ?___fldiv 0020                 ?___flsub 0034                 ?___fltol 003A  
               ?_decimal 0070                 ?_initOsc 0070           __size_of_setup 0037  
      interrupt_function 0004           ___wmul@product 0024                 _PIE1bits 008C  
               _PIR1bits 000C                _pushPORTB 07E6               _ADCON0bits 001F  
             _ADCON1bits 009F        ___wmul@multiplier 0020             ??_initEUSART 0021  
       __size_of___fladd 0288               ?_pushPORTB 0070         __size_of___fldiv 01DD  
       __size_of___flsub 0024         __size_of___fltol 007C         __size_of_decimal 011B  
               ___xxtofl 05A3       __end_of_initEUSART 0F7E         __size_of_initOsc 005E  
               _centenas 0079                 __ptext10 0023                 __ptext11 02AB  
               __ptext12 065F                 __ptext13 0F30                 _contador 0052  
          __size_of_main 001B                 _unidades 0050               _INTCONbits 000B  
               intlevel1 0000               _OSCCONbits 008F              ??_pushPORTB 0020  
             _OPTION_REG 0081            ___fladd@signs 0030             ___fladd@aexp 0031  
           ___fladd@bexp 0032  
